///////////////////////////////////////////////////////////////////////////////
//                                                                            /
// IAR C/C++ Compiler V8.10.3.10338/W32 for 8051        23/Nov/2016  16:17:50 /
// Copyright 2004-2011 IAR Systems AB.                                        /
//                                                                            /
//    Core               =  plain                                             /
//    Code model         =  banked                                            /
//    Data model         =  large                                             /
//    Calling convention =  xdata reentrant                                   /
//    Constant location  =  data_rom                                          /
//    Dptr setup         =  1,16                                              /
//    Source file        =  F:\GitHub\ZigBee\ZStack-CC2530-2.3.0-1.4.0\Projec /
//                          ts\zstack\Samples\SimonApp\Source\SimonApp.c      /
//    Command line       =  -f F:\GitHub\ZigBee\ZStack-CC2530-2.3.0-1.4.0\Pro /
//                          jects\zstack\Samples\SimonApp\CC2530DB\..\..\..\T /
//                          ools\CC2530DB\f8wRouter.cfg (-DCPU32MHZ           /
//                          -DROOT=__near_func -DMAC_CFG_APP_PENDING_QUEUE=TR /
//                          UE -DRTR_NWK -DBLINK_LEDS) -f                     /
//                          F:\GitHub\ZigBee\ZStack-CC2530-2.3.0-1.4.0\Projec /
//                          ts\zstack\Samples\SimonApp\CC2530DB\..\..\..\Tool /
//                          s\CC2530DB\f8wConfig.cfg (-DSECURE=0              /
//                          -DZG_SECURE_DYNAMIC=0 -DREFLECTOR                 /
//                          -DDEFAULT_CHANLIST=0x00000800                     /
//                          -DZDAPP_CONFIG_PAN_ID=0xFFFF                      /
//                          -DNWK_START_DELAY=100 -DEXTENDED_JOINING_RANDOM_M /
//                          ASK=0x007F -DBEACON_REQUEST_DELAY=100             /
//                          -DBEACON_REQ_DELAY_MASK=0x00FF                    /
//                          -DROUTE_EXPIRY_TIME=30 -DAPSC_ACK_WAIT_DURATION_P /
//                          OLLED=3000 -DNWK_INDIRECT_MSG_TIMEOUT=7           /
//                          -DMAX_RREQ_ENTRIES=8 -DAPSC_MAX_FRAME_RETRIES=3   /
//                          -DNWK_MAX_DATA_RETRIES=2                          /
//                          -DMAX_POLL_FAILURE_RETRIES=2 -DMAX_BCAST=9        /
//                          -DAPS_MAX_GROUPS=16 -DMAX_RTG_ENTRIES=40          /
//                          -DNWK_MAX_BINDING_ENTRIES=4                       /
//                          -DMAX_BINDING_CLUSTER_IDS=4                       /
//                          "-DDEFAULT_KEY={0x01, 0x03, 0x05, 0x07, 0x09,     /
//                          0x0B, 0x0D, 0x0F, 0x00, 0x02, 0x04, 0x06, 0x08,   /
//                          0x0A, 0x0C, 0x0D}" -DMAC_MAX_FRAME_SIZE=116       /
//                          "-DCONST=const __code" -DGENERIC=__generic        /
//                          -DRFD_RCVC_ALWAYS_ON=FALSE -DPOLL_RATE=1000       /
//                          -DQUEUED_POLL_RATE=100 -DRESPONSE_POLL_RATE=100)  /
//                          -DREJOIN_POLL_RATE=440 F:\GitHub\ZigBee\ZStack-CC /
//                          2530-2.3.0-1.4.0\Projects\zstack\Samples\SimonApp /
//                          \Source\SimonApp.c -D ZIGBEEPRO -D ZTOOL_P1 -D    /
//                          MT_TASK -D MT_SYS_FUNC -D MT_ZDO_FUNC -D          /
//                          LCD_SUPPORTED=DEBUG -D NV_RESTORE -D NV_INIT -lC  /
//                          F:\GitHub\ZigBee\ZStack-CC2530-2.3.0-1.4.0\Projec /
//                          ts\zstack\Samples\SimonApp\CC2530DB\RouterEB-Pro\ /
//                          List\ -lA F:\GitHub\ZigBee\ZStack-CC2530-2.3.0-1. /
//                          4.0\Projects\zstack\Samples\SimonApp\CC2530DB\Rou /
//                          terEB-Pro\List\ --diag_suppress Pe001,Pa010 -o    /
//                          F:\GitHub\ZigBee\ZStack-CC2530-2.3.0-1.4.0\Projec /
//                          ts\zstack\Samples\SimonApp\CC2530DB\RouterEB-Pro\ /
//                          Obj\ -e --debug --core=plain --dptr=16,1          /
//                          --data_model=large --code_model=banked            /
//                          --calling_convention=xdata_reentrant              /
//                          --place_constants=data_rom --nr_virtual_regs 16   /
//                          -I F:\GitHub\ZigBee\ZStack-CC2530-2.3.0-1.4.0\Pro /
//                          jects\zstack\Samples\SimonApp\CC2530DB\ -I        /
//                          F:\GitHub\ZigBee\ZStack-CC2530-2.3.0-1.4.0\Projec /
//                          ts\zstack\Samples\SimonApp\CC2530DB\..\SOURCE\    /
//                          -I F:\GitHub\ZigBee\ZStack-CC2530-2.3.0-1.4.0\Pro /
//                          jects\zstack\Samples\SimonApp\CC2530DB\..\..\..\Z /
//                          MAIN\TI2530DB\ -I F:\GitHub\ZigBee\ZStack-CC2530- /
//                          2.3.0-1.4.0\Projects\zstack\Samples\SimonApp\CC25 /
//                          30DB\..\..\..\..\..\COMPONENTS\MT\ -I             /
//                          F:\GitHub\ZigBee\ZStack-CC2530-2.3.0-1.4.0\Projec /
//                          ts\zstack\Samples\SimonApp\CC2530DB\..\..\..\..\. /
//                          .\COMPONENTS\HAL\INCLUDE\ -I                      /
//                          F:\GitHub\ZigBee\ZStack-CC2530-2.3.0-1.4.0\Projec /
//                          ts\zstack\Samples\SimonApp\CC2530DB\..\..\..\..\. /
//                          .\COMPONENTS\HAL\TARGET\CC2530EB\ -I              /
//                          F:\GitHub\ZigBee\ZStack-CC2530-2.3.0-1.4.0\Projec /
//                          ts\zstack\Samples\SimonApp\CC2530DB\..\..\..\..\. /
//                          .\COMPONENTS\OSAL\MCU\CCSOC\ -I                   /
//                          F:\GitHub\ZigBee\ZStack-CC2530-2.3.0-1.4.0\Projec /
//                          ts\zstack\Samples\SimonApp\CC2530DB\..\..\..\..\. /
//                          .\COMPONENTS\OSAL\INCLUDE\ -I                     /
//                          F:\GitHub\ZigBee\ZStack-CC2530-2.3.0-1.4.0\Projec /
//                          ts\zstack\Samples\SimonApp\CC2530DB\..\..\..\..\. /
//                          .\COMPONENTS\STACK\AF\ -I                         /
//                          F:\GitHub\ZigBee\ZStack-CC2530-2.3.0-1.4.0\Projec /
//                          ts\zstack\Samples\SimonApp\CC2530DB\..\..\..\..\. /
//                          .\COMPONENTS\STACK\NWK\ -I                        /
//                          F:\GitHub\ZigBee\ZStack-CC2530-2.3.0-1.4.0\Projec /
//                          ts\zstack\Samples\SimonApp\CC2530DB\..\..\..\..\. /
//                          .\COMPONENTS\STACK\SEC\ -I                        /
//                          F:\GitHub\ZigBee\ZStack-CC2530-2.3.0-1.4.0\Projec /
//                          ts\zstack\Samples\SimonApp\CC2530DB\..\..\..\..\. /
//                          .\COMPONENTS\STACK\SAPI\ -I                       /
//                          F:\GitHub\ZigBee\ZStack-CC2530-2.3.0-1.4.0\Projec /
//                          ts\zstack\Samples\SimonApp\CC2530DB\..\..\..\..\. /
//                          .\COMPONENTS\STACK\SYS\ -I                        /
//                          F:\GitHub\ZigBee\ZStack-CC2530-2.3.0-1.4.0\Projec /
//                          ts\zstack\Samples\SimonApp\CC2530DB\..\..\..\..\. /
//                          .\COMPONENTS\STACK\ZDO\ -I                        /
//                          F:\GitHub\ZigBee\ZStack-CC2530-2.3.0-1.4.0\Projec /
//                          ts\zstack\Samples\SimonApp\CC2530DB\..\..\..\..\. /
//                          .\COMPONENTS\ZMAC\F8W\ -I                         /
//                          F:\GitHub\ZigBee\ZStack-CC2530-2.3.0-1.4.0\Projec /
//                          ts\zstack\Samples\SimonApp\CC2530DB\..\..\..\..\. /
//                          .\COMPONENTS\ZMAC\ -I F:\GitHub\ZigBee\ZStack-CC2 /
//                          530-2.3.0-1.4.0\Projects\zstack\Samples\SimonApp\ /
//                          CC2530DB\..\..\..\..\..\COMPONENTS\SERVICES\SADDR /
//                          \ -I F:\GitHub\ZigBee\ZStack-CC2530-2.3.0-1.4.0\P /
//                          rojects\zstack\Samples\SimonApp\CC2530DB\..\..\.. /
//                          \..\..\COMPONENTS\SERVICES\SDATA\ -I              /
//                          F:\GitHub\ZigBee\ZStack-CC2530-2.3.0-1.4.0\Projec /
//                          ts\zstack\Samples\SimonApp\CC2530DB\..\..\..\..\. /
//                          .\COMPONENTS\MAC\INCLUDE\ -I                      /
//                          F:\GitHub\ZigBee\ZStack-CC2530-2.3.0-1.4.0\Projec /
//                          ts\zstack\Samples\SimonApp\CC2530DB\..\..\..\..\. /
//                          .\COMPONENTS\MAC\HIGH_LEVEL\ -I                   /
//                          F:\GitHub\ZigBee\ZStack-CC2530-2.3.0-1.4.0\Projec /
//                          ts\zstack\Samples\SimonApp\CC2530DB\..\..\..\..\. /
//                          .\COMPONENTS\MAC\LOW_LEVEL\srf04\ -I              /
//                          F:\GitHub\ZigBee\ZStack-CC2530-2.3.0-1.4.0\Projec /
//                          ts\zstack\Samples\SimonApp\CC2530DB\..\..\..\..\. /
//                          .\COMPONENTS\MAC\LOW_LEVEL\srf04\SINGLE_CHIP\     /
//                          -Ohz --require_prototypes                         /
//    List file          =  F:\GitHub\ZigBee\ZStack-CC2530-2.3.0-1.4.0\Projec /
//                          ts\zstack\Samples\SimonApp\CC2530DB\RouterEB-Pro\ /
//                          List\SimonApp.s51                                 /
//                                                                            /
//                                                                            /
///////////////////////////////////////////////////////////////////////////////

        NAME SimonApp

        RTMODEL "__SystemLibrary", "CLib"
        RTMODEL "__calling_convention", "xdata_reentrant"
        RTMODEL "__code_model", "banked"
        RTMODEL "__core", "plain"
        RTMODEL "__data_model", "large"
        RTMODEL "__dptr_size", "16"
        RTMODEL "__extended_stack", "disabled"
        RTMODEL "__location_for_constants", "data"
        RTMODEL "__number_of_dptrs", "1"
        RTMODEL "__rt_version", "1"

        RSEG DOVERLAY:DATA:NOROOT(0)
        RSEG IOVERLAY:IDATA:NOROOT(0)
        RSEG ISTACK:IDATA:NOROOT(0)
        RSEG PSTACK:XDATA:NOROOT(0)
        RSEG XSTACK:XDATA:NOROOT(0)

        EXTERN ?ALLOC_XSTACK8
        EXTERN ?BANKED_ENTER_XDATA
        EXTERN ?BANKED_LEAVE_XDATA
        EXTERN ?BDISPATCH
        EXTERN ?BRET
        EXTERN ?DEALLOC_XSTACK8
        EXTERN ?MOVE_LONG8_XDATA_XDATA
        EXTERN ?PUSH_XSTACK_I_ONE
        EXTERN ?PUSH_XSTACK_I_THREE
        EXTERN ?PUSH_XSTACK_I_TWO
        EXTERN ?US_SWITCH_SPARSE
        EXTERN ?V0
        EXTERN ?XSP
        EXTERN ?XSTACK_DISP0_8
        EXTERN __INIT_XDATA_Z

        PUBLIC ??SimonApp_HandleKeys?relay
        FUNCTION ??SimonApp_HandleKeys?relay,0203H
        PUBLIC ??SimonApp_Init?relay
        FUNCTION ??SimonApp_Init?relay,0203H
        PUBLIC ??SimonApp_MessageMSGCB?relay
        FUNCTION ??SimonApp_MessageMSGCB?relay,0203H
        PUBLIC ??SimonApp_ProcessEvent?relay
        FUNCTION ??SimonApp_ProcessEvent?relay,0203H
        PUBLIC ??SimonApp_ProcessZDOMsgs?relay
        FUNCTION ??SimonApp_ProcessZDOMsgs?relay,0203H
        PUBLIC ??SimonApp_SendTheMessage?relay
        FUNCTION ??SimonApp_SendTheMessage?relay,0203H
        PUBLIC ??SimonApp_SendTheSerial?relay
        FUNCTION ??SimonApp_SendTheSerial?relay,0203H
        FUNCTION ??rxCB?relay,0203H
        PUBLIC DEV_FLAG
        PUBLIC SimonApp_ClusterList
        PUBLIC SimonApp_DstAddr
        PUBLIC SimonApp_HandleKeys
        FUNCTION SimonApp_HandleKeys,021203H
        ARGFRAME XSTACK, 0, STACK
        LOCFRAME XSTACK, 9, STACK
        PUBLIC SimonApp_Init
        FUNCTION SimonApp_Init,021203H
        ARGFRAME XSTACK, 0, STACK
        LOCFRAME XSTACK, 38, STACK
        PUBLIC SimonApp_MessageMSGCB
        FUNCTION SimonApp_MessageMSGCB,021203H
        ARGFRAME XSTACK, 12, STACK
        ARGFRAME IOVERLAY, 0, STATIC
        ARGFRAME DOVERLAY, 0, STATIC
        LOCFRAME XSTACK, 14, STACK
        PUBLIC SimonApp_NwkState
        PUBLIC SimonApp_ProcessEvent
        FUNCTION SimonApp_ProcessEvent,021203H
        ARGFRAME XSTACK, 0, STACK
        LOCFRAME XSTACK, 12, STACK
        PUBLIC SimonApp_ProcessZDOMsgs
        FUNCTION SimonApp_ProcessZDOMsgs,0a1203H
        ARGFRAME XSTACK, 12, STACK
        ARGFRAME IOVERLAY, 0, STATIC
        ARGFRAME DOVERLAY, 0, STATIC
        LOCFRAME XSTACK, 10, STACK
        PUBLIC SimonApp_SendTheMessage
        FUNCTION SimonApp_SendTheMessage,021203H
        ARGFRAME XSTACK, 12, STACK
        ARGFRAME IOVERLAY, 0, STATIC
        ARGFRAME DOVERLAY, 0, STATIC
        LOCFRAME ISTACK, 2, STACK
        LOCFRAME XSTACK, 31, STACK
        PUBLIC SimonApp_SendTheSerial
        FUNCTION SimonApp_SendTheSerial,021203H
        ARGFRAME XSTACK, 12, STACK
        ARGFRAME IOVERLAY, 0, STATIC
        ARGFRAME DOVERLAY, 0, STATIC
        LOCFRAME XSTACK, 33, STACK
        PUBLIC SimonApp_SimpleDesc
        PUBLIC SimonApp_TaskID
        PUBLIC SimonApp_TransID
        PUBLIC SimonApp_epDesc
        FUNCTION rxCB,021603H
        ARGFRAME XSTACK, 0, STACK
        LOCFRAME ISTACK, 2, STACK
        PUBLIC uartbuf
        
        CFI Names cfiNames0
        CFI StackFrame CFA_SP SP IDATA
        CFI StackFrame CFA_PSP16 PSP16 XDATA
        CFI StackFrame CFA_XSP16 XSP16 XDATA
        CFI StaticOverlayFrame CFA_IOVERLAY IOVERLAY
        CFI StaticOverlayFrame CFA_DOVERLAY DOVERLAY
        CFI Resource `PSW.CY`:1, `B.BR0`:1, `B.BR1`:1, `B.BR2`:1, `B.BR3`:1
        CFI Resource `B.BR4`:1, `B.BR5`:1, `B.BR6`:1, `B.BR7`:1, `VB.BR8`:1
        CFI Resource `VB.BR9`:1, `VB.BR10`:1, `VB.BR11`:1, `VB.BR12`:1
        CFI Resource `VB.BR13`:1, `VB.BR14`:1, `VB.BR15`:1, VB:8, B:8, A:8
        CFI Resource PSW:8, DPL0:8, DPH0:8, R0:8, R1:8, R2:8, R3:8, R4:8, R5:8
        CFI Resource R6:8, R7:8, V0:8, V1:8, V2:8, V3:8, V4:8, V5:8, V6:8, V7:8
        CFI Resource V8:8, V9:8, V10:8, V11:8, V12:8, V13:8, V14:8, V15:8, SP:8
        CFI Resource PSPH:8, PSPL:8, PSP16:16, XSPH:8, XSPL:8, XSP16:16
        CFI VirtualResource ?RET:24
        CFI Resource ?BRET_EXT:8
        CFI VirtualResource ?RET_HIGH:8, ?RET_LOW:8
        CFI ResourceParts PSP16 PSPH, PSPL
        CFI ResourceParts XSP16 XSPH, XSPL
        CFI ResourceParts ?RET ?BRET_EXT, ?RET_HIGH, ?RET_LOW
        CFI EndNames cfiNames0
        
        CFI Common cfiCommon0 Using cfiNames0
        CFI CodeAlign 1
        CFI DataAlign -1
        CFI ReturnAddress ?RET CODE
        CFI CFA_DOVERLAY Used
        CFI CFA_IOVERLAY Used
        CFI CFA_SP SP+-3
        CFI CFA_PSP16 PSP16+0
        CFI CFA_XSP16 XSP16+0
        CFI `PSW.CY` SameValue
        CFI `B.BR0` SameValue
        CFI `B.BR1` SameValue
        CFI `B.BR2` SameValue
        CFI `B.BR3` SameValue
        CFI `B.BR4` SameValue
        CFI `B.BR5` SameValue
        CFI `B.BR6` SameValue
        CFI `B.BR7` SameValue
        CFI `VB.BR8` SameValue
        CFI `VB.BR9` SameValue
        CFI `VB.BR10` SameValue
        CFI `VB.BR11` SameValue
        CFI `VB.BR12` SameValue
        CFI `VB.BR13` SameValue
        CFI `VB.BR14` SameValue
        CFI `VB.BR15` SameValue
        CFI VB SameValue
        CFI B Undefined
        CFI A Undefined
        CFI PSW SameValue
        CFI DPL0 SameValue
        CFI DPH0 SameValue
        CFI R0 Undefined
        CFI R1 Undefined
        CFI R2 Undefined
        CFI R3 Undefined
        CFI R4 Undefined
        CFI R5 Undefined
        CFI R6 SameValue
        CFI R7 SameValue
        CFI V0 SameValue
        CFI V1 SameValue
        CFI V2 SameValue
        CFI V3 SameValue
        CFI V4 SameValue
        CFI V5 SameValue
        CFI V6 SameValue
        CFI V7 SameValue
        CFI V8 SameValue
        CFI V9 SameValue
        CFI V10 SameValue
        CFI V11 SameValue
        CFI V12 SameValue
        CFI V13 SameValue
        CFI V14 SameValue
        CFI V15 SameValue
        CFI PSPH Undefined
        CFI PSPL Undefined
        CFI XSPH Undefined
        CFI XSPL Undefined
        CFI ?RET Concat
        CFI ?BRET_EXT Frame(CFA_SP, 3)
        CFI ?RET_HIGH Frame(CFA_SP, 2)
        CFI ?RET_LOW Frame(CFA_SP, 1)
        CFI EndCommon cfiCommon0
        
        
        CFI Common cfiCommon1 Using cfiNames0
        CFI CodeAlign 1
        CFI DataAlign -1
        CFI ReturnAddress ?RET CODE
        CFI CFA_DOVERLAY Used
        CFI CFA_IOVERLAY Used
        CFI CFA_SP SP+-2
        CFI CFA_PSP16 PSP16+0
        CFI CFA_XSP16 XSP16+0
        CFI `PSW.CY` SameValue
        CFI `B.BR0` SameValue
        CFI `B.BR1` SameValue
        CFI `B.BR2` SameValue
        CFI `B.BR3` SameValue
        CFI `B.BR4` SameValue
        CFI `B.BR5` SameValue
        CFI `B.BR6` SameValue
        CFI `B.BR7` SameValue
        CFI `VB.BR8` SameValue
        CFI `VB.BR9` SameValue
        CFI `VB.BR10` SameValue
        CFI `VB.BR11` SameValue
        CFI `VB.BR12` SameValue
        CFI `VB.BR13` SameValue
        CFI `VB.BR14` SameValue
        CFI `VB.BR15` SameValue
        CFI VB SameValue
        CFI B SameValue
        CFI A SameValue
        CFI PSW SameValue
        CFI DPL0 SameValue
        CFI DPH0 SameValue
        CFI R0 SameValue
        CFI R1 SameValue
        CFI R2 SameValue
        CFI R3 SameValue
        CFI R4 SameValue
        CFI R5 SameValue
        CFI R6 SameValue
        CFI R7 SameValue
        CFI V0 SameValue
        CFI V1 SameValue
        CFI V2 SameValue
        CFI V3 SameValue
        CFI V4 SameValue
        CFI V5 SameValue
        CFI V6 SameValue
        CFI V7 SameValue
        CFI V8 SameValue
        CFI V9 SameValue
        CFI V10 SameValue
        CFI V11 SameValue
        CFI V12 SameValue
        CFI V13 SameValue
        CFI V14 SameValue
        CFI V15 SameValue
        CFI PSPH Undefined
        CFI PSPL Undefined
        CFI XSPH Undefined
        CFI XSPL Undefined
        CFI ?RET Concat
        CFI ?BRET_EXT SameValue
        CFI ?RET_HIGH Frame(CFA_SP, 2)
        CFI ?RET_LOW Frame(CFA_SP, 1)
        CFI EndCommon cfiCommon1
        
afRegister          SYMBOL "afRegister"
HalUARTOpen         SYMBOL "HalUARTOpen"
RegisterForKeys     SYMBOL "RegisterForKeys"
HalLcdWriteString   SYMBOL "HalLcdWriteString"
ZDO_RegisterForZDOMsg SYMBOL "ZDO_RegisterForZDOMsg"
osal_msg_receive    SYMBOL "osal_msg_receive"
LS164_BYTE          SYMBOL "LS164_BYTE"
osal_msg_deallocate SYMBOL "osal_msg_deallocate"
HalLedSet           SYMBOL "HalLedSet"
ZDO_ParseEPListRsp  SYMBOL "ZDO_ParseEPListRsp"
osal_mem_free       SYMBOL "osal_mem_free"
osal_memcpy         SYMBOL "osal_memcpy"
HalUARTWrite        SYMBOL "HalUARTWrite"
osal_memset         SYMBOL "osal_memset"
osal_strlen         SYMBOL "osal_strlen"
AF_DataRequest      SYMBOL "AF_DataRequest"
HalUARTRead         SYMBOL "HalUARTRead"
osal_set_event      SYMBOL "osal_set_event"
??AF_DataRequest?relay SYMBOL "?relay", AF_DataRequest
??HalLcdWriteString?relay SYMBOL "?relay", HalLcdWriteString
??HalLedSet?relay   SYMBOL "?relay", HalLedSet
??HalUARTOpen?relay SYMBOL "?relay", HalUARTOpen
??HalUARTRead?relay SYMBOL "?relay", HalUARTRead
??HalUARTWrite?relay SYMBOL "?relay", HalUARTWrite
??LS164_BYTE?relay  SYMBOL "?relay", LS164_BYTE
??RegisterForKeys?relay SYMBOL "?relay", RegisterForKeys
??ZDO_ParseEPListRsp?relay SYMBOL "?relay", ZDO_ParseEPListRsp
??ZDO_RegisterForZDOMsg?relay SYMBOL "?relay", ZDO_RegisterForZDOMsg
??afRegister?relay  SYMBOL "?relay", afRegister
??osal_mem_free?relay SYMBOL "?relay", osal_mem_free
??osal_memcpy?relay SYMBOL "?relay", osal_memcpy
??osal_memset?relay SYMBOL "?relay", osal_memset
??osal_msg_deallocate?relay SYMBOL "?relay", osal_msg_deallocate
??osal_msg_receive?relay SYMBOL "?relay", osal_msg_receive
??osal_set_event?relay SYMBOL "?relay", osal_set_event
??osal_strlen?relay SYMBOL "?relay", osal_strlen
SimonApp_HandleKeys SYMBOL "SimonApp_HandleKeys"
??SimonApp_HandleKeys?relay SYMBOL "?relay", SimonApp_HandleKeys
SimonApp_Init       SYMBOL "SimonApp_Init"
??SimonApp_Init?relay SYMBOL "?relay", SimonApp_Init
SimonApp_MessageMSGCB SYMBOL "SimonApp_MessageMSGCB"
??SimonApp_MessageMSGCB?relay SYMBOL "?relay", SimonApp_MessageMSGCB
SimonApp_ProcessEvent SYMBOL "SimonApp_ProcessEvent"
??SimonApp_ProcessEvent?relay SYMBOL "?relay", SimonApp_ProcessEvent
SimonApp_ProcessZDOMsgs SYMBOL "SimonApp_ProcessZDOMsgs"
??SimonApp_ProcessZDOMsgs?relay SYMBOL "?relay", SimonApp_ProcessZDOMsgs
SimonApp_SendTheMessage SYMBOL "SimonApp_SendTheMessage"
??SimonApp_SendTheMessage?relay SYMBOL "?relay", SimonApp_SendTheMessage
SimonApp_SendTheSerial SYMBOL "SimonApp_SendTheSerial"
??SimonApp_SendTheSerial?relay SYMBOL "?relay", SimonApp_SendTheSerial

        EXTERN afRegister
        FUNCTION afRegister,0202H
        ARGFRAME ISTACK, 0, STACK
        ARGFRAME PSTACK, 0, STACK
        ARGFRAME XSTACK, 38, STACK
        ARGFRAME IOVERLAY, 0, STATIC
        ARGFRAME DOVERLAY, 0, STATIC
        EXTERN HalUARTOpen
        FUNCTION HalUARTOpen,0202H
        ARGFRAME ISTACK, 0, STACK
        ARGFRAME PSTACK, 0, STACK
        ARGFRAME XSTACK, 38, STACK
        ARGFRAME IOVERLAY, 0, STATIC
        ARGFRAME DOVERLAY, 0, STATIC
        EXTERN RegisterForKeys
        FUNCTION RegisterForKeys,0202H
        ARGFRAME ISTACK, 0, STACK
        ARGFRAME PSTACK, 0, STACK
        ARGFRAME XSTACK, 38, STACK
        ARGFRAME IOVERLAY, 0, STATIC
        ARGFRAME DOVERLAY, 0, STATIC
        EXTERN HalLcdWriteString
        FUNCTION HalLcdWriteString,0202H
        ARGFRAME ISTACK, 0, STACK
        ARGFRAME PSTACK, 0, STACK
        ARGFRAME XSTACK, 38, STACK
        ARGFRAME IOVERLAY, 0, STATIC
        ARGFRAME DOVERLAY, 0, STATIC
        EXTERN ZDO_RegisterForZDOMsg
        FUNCTION ZDO_RegisterForZDOMsg,0202H
        ARGFRAME ISTACK, 0, STACK
        ARGFRAME PSTACK, 0, STACK
        ARGFRAME XSTACK, 38, STACK
        ARGFRAME IOVERLAY, 0, STATIC
        ARGFRAME DOVERLAY, 0, STATIC
        EXTERN osal_msg_receive
        FUNCTION osal_msg_receive,0202H
        ARGFRAME ISTACK, 0, STACK
        ARGFRAME PSTACK, 0, STACK
        ARGFRAME XSTACK, 12, STACK
        ARGFRAME IOVERLAY, 0, STATIC
        ARGFRAME DOVERLAY, 0, STATIC
        EXTERN LS164_BYTE
        FUNCTION LS164_BYTE,0202H
        ARGFRAME ISTACK, 0, STACK
        ARGFRAME PSTACK, 0, STACK
        ARGFRAME XSTACK, 12, STACK
        ARGFRAME IOVERLAY, 0, STATIC
        ARGFRAME DOVERLAY, 0, STATIC
        EXTERN osal_msg_deallocate
        FUNCTION osal_msg_deallocate,0202H
        ARGFRAME ISTACK, 0, STACK
        ARGFRAME PSTACK, 0, STACK
        ARGFRAME XSTACK, 12, STACK
        ARGFRAME IOVERLAY, 0, STATIC
        ARGFRAME DOVERLAY, 0, STATIC
        EXTERN HalLedSet
        FUNCTION HalLedSet,0202H
        ARGFRAME ISTACK, 0, STACK
        ARGFRAME PSTACK, 0, STACK
        ARGFRAME XSTACK, 10, STACK
        ARGFRAME IOVERLAY, 0, STATIC
        ARGFRAME DOVERLAY, 0, STATIC
        EXTERN ZDO_ParseEPListRsp
        FUNCTION ZDO_ParseEPListRsp,0202H
        ARGFRAME ISTACK, 0, STACK
        ARGFRAME PSTACK, 0, STACK
        ARGFRAME XSTACK, 10, STACK
        ARGFRAME IOVERLAY, 0, STATIC
        ARGFRAME DOVERLAY, 0, STATIC
        EXTERN osal_mem_free
        FUNCTION osal_mem_free,0202H
        ARGFRAME ISTACK, 0, STACK
        ARGFRAME PSTACK, 0, STACK
        ARGFRAME XSTACK, 10, STACK
        ARGFRAME IOVERLAY, 0, STATIC
        ARGFRAME DOVERLAY, 0, STATIC
        EXTERN osal_memcpy
        FUNCTION osal_memcpy,0202H
        ARGFRAME ISTACK, 0, STACK
        ARGFRAME PSTACK, 0, STACK
        ARGFRAME XSTACK, 14, STACK
        ARGFRAME IOVERLAY, 0, STATIC
        ARGFRAME DOVERLAY, 0, STATIC
        EXTERN HalUARTWrite
        FUNCTION HalUARTWrite,0202H
        ARGFRAME ISTACK, 0, STACK
        ARGFRAME PSTACK, 0, STACK
        ARGFRAME XSTACK, 11, STACK
        ARGFRAME IOVERLAY, 0, STATIC
        ARGFRAME DOVERLAY, 0, STATIC
        EXTERN osal_memset
        FUNCTION osal_memset,0202H
        ARGFRAME ISTACK, 2, STACK
        ARGFRAME PSTACK, 0, STACK
        ARGFRAME XSTACK, 11, STACK
        ARGFRAME IOVERLAY, 0, STATIC
        ARGFRAME DOVERLAY, 0, STATIC
        EXTERN osal_strlen
        FUNCTION osal_strlen,0202H
        ARGFRAME ISTACK, 0, STACK
        ARGFRAME PSTACK, 0, STACK
        ARGFRAME XSTACK, 27, STACK
        ARGFRAME IOVERLAY, 0, STATIC
        ARGFRAME DOVERLAY, 0, STATIC
        EXTERN AF_DataRequest
        FUNCTION AF_DataRequest,0202H
        ARGFRAME ISTACK, 0, STACK
        ARGFRAME PSTACK, 0, STACK
        ARGFRAME XSTACK, 33, STACK
        ARGFRAME IOVERLAY, 0, STATIC
        ARGFRAME DOVERLAY, 0, STATIC
        EXTERN HalUARTRead
        FUNCTION HalUARTRead,0202H
        ARGFRAME ISTACK, 2, STACK
        ARGFRAME PSTACK, 0, STACK
        ARGFRAME XSTACK, 0, STACK
        ARGFRAME IOVERLAY, 0, STATIC
        ARGFRAME DOVERLAY, 0, STATIC
        EXTERN osal_set_event
        FUNCTION osal_set_event,0202H
        ARGFRAME ISTACK, 2, STACK
        ARGFRAME PSTACK, 0, STACK
        ARGFRAME XSTACK, 0, STACK
        ARGFRAME IOVERLAY, 0, STATIC
        ARGFRAME DOVERLAY, 0, STATIC
        EXTERN ??AF_DataRequest?relay
        FUNCTION ??AF_DataRequest?relay,00H
        EXTERN ??HalLcdWriteString?relay
        FUNCTION ??HalLcdWriteString?relay,00H
        EXTERN ??HalLedSet?relay
        FUNCTION ??HalLedSet?relay,00H
        EXTERN ??HalUARTOpen?relay
        FUNCTION ??HalUARTOpen?relay,00H
        EXTERN ??HalUARTRead?relay
        FUNCTION ??HalUARTRead?relay,00H
        EXTERN ??HalUARTWrite?relay
        FUNCTION ??HalUARTWrite?relay,00H
        EXTERN ??LS164_BYTE?relay
        FUNCTION ??LS164_BYTE?relay,00H
        EXTERN ??RegisterForKeys?relay
        FUNCTION ??RegisterForKeys?relay,00H
        EXTERN ??ZDO_ParseEPListRsp?relay
        FUNCTION ??ZDO_ParseEPListRsp?relay,00H
        EXTERN ??ZDO_RegisterForZDOMsg?relay
        FUNCTION ??ZDO_RegisterForZDOMsg?relay,00H
        EXTERN ??afRegister?relay
        FUNCTION ??afRegister?relay,00H
        EXTERN ??osal_mem_free?relay
        FUNCTION ??osal_mem_free?relay,00H
        EXTERN ??osal_memcpy?relay
        FUNCTION ??osal_memcpy?relay,00H
        EXTERN ??osal_memset?relay
        FUNCTION ??osal_memset?relay,00H
        EXTERN ??osal_msg_deallocate?relay
        FUNCTION ??osal_msg_deallocate?relay,00H
        EXTERN ??osal_msg_receive?relay
        FUNCTION ??osal_msg_receive?relay,00H
        EXTERN ??osal_set_event?relay
        FUNCTION ??osal_set_event?relay,00H
        EXTERN ??osal_strlen?relay
        FUNCTION ??osal_strlen?relay,00H

// F:\GitHub\ZigBee\ZStack-CC2530-2.3.0-1.4.0\Projects\zstack\Samples\SimonApp\Source\SimonApp.c
//    1 /**************************************************************************************************
//    2   Filename:       SimonApp.c
//    3   Revised:        $Date: 2009-03-18 15:56:27 -0700 (Wed, 18 Mar 2009) $
//    4   Revision:       $Revision: 19453 $
//    5 
//    6   Description:    Generic Application (no Profile).
//    7 
//    8 
//    9   Copyright 2004-2009 Texas Instruments Incorporated. All rights reserved.
//   10 
//   11   IMPORTANT: Your use of this Software is limited to those specific rights
//   12   granted under the terms of a software license agreement between the user
//   13   who downloaded the software, his/her employer (which must be your employer)
//   14   and Texas Instruments Incorporated (the "License").  You may not use this
//   15   Software unless you agree to abide by the terms of the License. The License
//   16   limits your use, and you acknowledge, that the Software may not be modified,
//   17   copied or distributed unless embedded on a Texas Instruments microcontroller
//   18   or used solely and exclusively in conjunction with a Texas Instruments radio
//   19   frequency transceiver, which is integrated into your product.  Other than for
//   20   the foregoing purpose, you may not use, reproduce, copy, prepare derivative
//   21   works of, modify, distribute, perform, display or sell this Software and/or
//   22   its documentation for any purpose.
//   23 
//   24   YOU FURTHER ACKNOWLEDGE AND AGREE THAT THE SOFTWARE AND DOCUMENTATION ARE
//   25   PROVIDED “AS IS?WITHOUT WARRANTY OF ANY KIND, EITHER EXPRESS OR IMPLIED, 
//   26   INCLUDING WITHOUT LIMITATION, ANY WARRANTY OF MERCHANTABILITY, TITLE, 
//   27   NON-INFRINGEMENT AND FITNESS FOR A PARTICULAR PURPOSE. IN NO EVENT SHALL
//   28   TEXAS INSTRUMENTS OR ITS LICENSORS BE LIABLE OR OBLIGATED UNDER CONTRACT,
//   29   NEGLIGENCE, STRICT LIABILITY, CONTRIBUTION, BREACH OF WARRANTY, OR OTHER
//   30   LEGAL EQUITABLE THEORY ANY DIRECT OR INDIRECT DAMAGES OR EXPENSES
//   31   INCLUDING BUT NOT LIMITED TO ANY INCIDENTAL, SPECIAL, INDIRECT, PUNITIVE
//   32   OR CONSEQUENTIAL DAMAGES, LOST PROFITS OR LOST DATA, COST OF PROCUREMENT
//   33   OF SUBSTITUTE GOODS, TECHNOLOGY, SERVICES, OR ANY CLAIMS BY THIRD PARTIES
//   34   (INCLUDING BUT NOT LIMITED TO ANY DEFENSE THEREOF), OR OTHER SIMILAR COSTS.
//   35 
//   36   Should you have any questions regarding your right to use this Software,
//   37   contact Texas Instruments Incorporated at www.TI.com. 
//   38 **************************************************************************************************/
//   39 
//   40 /*********************************************************************
//   41   This application isn't intended to do anything useful, it is
//   42   intended to be a simple example of an application's structure.
//   43 
//   44   This application sends "Hello World" to another "Generic"
//   45   application every 15 seconds.  The application will also
//   46   receive "Hello World" packets.
//   47 
//   48   The "Hello World" messages are sent/received as MSG type message.
//   49 
//   50   This applications doesn't have a profile, so it handles everything
//   51   directly - itself.
//   52 
//   53   Key control:
//   54     SW1:
//   55     SW2:  initiates end device binding
//   56     SW3:
//   57     SW4:  initiates a match description request
//   58 *********************************************************************/
//   59 
//   60 /*********************************************************************
//   61  * INCLUDES
//   62  */
//   63 #include "OSAL.h"
//   64 #include "AF.h"
//   65 #include "ZDApp.h"
//   66 #include "ZDObject.h"
//   67 #include "ZDProfile.h"
//   68 
//   69 #include "SimonApp.h"
//   70 #include "DebugTrace.h"
//   71 
//   72 #include "modules/74LS164_8LED.h" 
//   73 
//   74 #if !defined( WIN32 )
//   75   #include "OnBoard.h"
//   76 #endif
//   77 
//   78 /* HAL */
//   79 #include "hal_lcd.h"
//   80 #include "hal_led.h"
//   81 #include "hal_key.h"
//   82 #include "hal_uart.h"
//   83 
//   84 /*********************************************************************
//   85  * MACROS
//   86  */
//   87 
//   88 /*********************************************************************
//   89  * CONSTANTS
//   90  */
//   91 
//   92 /*********************************************************************
//   93  * TYPEDEFS
//   94  */
//   95 
//   96 /*********************************************************************
//   97  * GLOBAL VARIABLES
//   98  */
//   99 
//  100 // This list should be filled with Application specific Cluster IDs.

        RSEG XDATA_ROM_C:CONST:REORDER:NOROOT(0)
        DATA16
//  101 const cId_t SimonApp_ClusterList[SimonApp_MAX_CLUSTERS] =
SimonApp_ClusterList:
        DW 1
//  102 {
//  103   SimonApp_CLUSTERID
//  104 };
//  105 

        RSEG XDATA_ROM_C:CONST:REORDER:NOROOT(0)
        DATA8
//  106 const SimpleDescriptionFormat_t SimonApp_SimpleDesc =
SimonApp_SimpleDesc:
        DB 10
        DATA16
        DW 3844
        DW 1
        DATA8
        DB 0
        DB 1
        DATA16
        DW SimonApp_ClusterList
        DATA8
        DB 1
        DATA16
        DW SimonApp_ClusterList
//  107 {
//  108   SimonApp_ENDPOINT,              //  int Endpoint;
//  109   SimonApp_PROFID,                //  uint16 AppProfId[2];
//  110   SimonApp_DEVICEID,              //  uint16 AppDeviceId[2];
//  111   SimonApp_DEVICE_VERSION,        //  int   AppDevVer:4;
//  112   SimonApp_FLAGS,                 //  int   AppFlags:4;
//  113   SimonApp_MAX_CLUSTERS,          //  byte  AppNumInClusters;
//  114   (cId_t *)SimonApp_ClusterList,  //  byte *pAppInClusterList;
//  115   SimonApp_MAX_CLUSTERS,          //  byte  AppNumInClusters;
//  116   (cId_t *)SimonApp_ClusterList   //  byte *pAppInClusterList;
//  117 };
//  118 
//  119 // This is the Endpoint/Interface description.  It is defined here, but
//  120 // filled-in in SimonApp_Init().  Another way to go would be to fill
//  121 // in the structure here and make it a "const" (in code space).  The
//  122 // way it's defined in this sample app it is define in RAM.

        RSEG XDATA_Z:XDATA:NOROOT(0)
        DATA8
//  123 endPointDesc_t SimonApp_epDesc;
SimonApp_epDesc:
        DS 6
        REQUIRE __INIT_XDATA_Z
//  124 
//  125 /*********************************************************************
//  126  * EXTERNAL VARIABLES
//  127  */
//  128 
//  129 /*********************************************************************
//  130  * EXTERNAL FUNCTIONS
//  131  */
//  132 
//  133 /*********************************************************************
//  134  * LOCAL VARIABLES
//  135  */

        RSEG XDATA_Z:XDATA:NOROOT(0)
        DATA8
//  136 byte SimonApp_TaskID;   // Task ID for internal task/event processing
SimonApp_TaskID:
        DS 1
        REQUIRE __INIT_XDATA_Z
//  137                           // This variable will be received when
//  138                           // SimonApp_Init() is called.

        RSEG XDATA_Z:XDATA:NOROOT(0)
        DATA8
//  139 devStates_t SimonApp_NwkState;
SimonApp_NwkState:
        DS 1
        REQUIRE __INIT_XDATA_Z
//  140 
//  141 

        RSEG XDATA_Z:XDATA:NOROOT(0)
        DATA8
//  142 byte SimonApp_TransID;  // This is the unique message ID (counter)
SimonApp_TransID:
        DS 1
        REQUIRE __INIT_XDATA_Z
//  143 

        RSEG XDATA_Z:XDATA:NOROOT(0)
        DATA8
//  144 afAddrType_t SimonApp_DstAddr;
SimonApp_DstAddr:
        DS 12
        REQUIRE __INIT_XDATA_Z
//  145 
//  146 /*added by Simon*/
//  147 #define UART_MAX 112

        RSEG XDATA_Z:XDATA:NOROOT(0)
        DATA8
//  148 unsigned char uartbuf[UART_MAX]={0};
uartbuf:
        DS 112
        REQUIRE __INIT_XDATA_Z
//  149 

        RSEG XDATA_Z:XDATA:NOROOT(0)
        DATA8
//  150 uint8 DEV_FLAG=0;
DEV_FLAG:
        DS 1
        REQUIRE __INIT_XDATA_Z
//  151 
//  152 
//  153 /*********************************************************************
//  154  * LOCAL FUNCTIONS
//  155  */
//  156 void SimonApp_ProcessZDOMsgs( zdoIncomingMsg_t *inMsg );
//  157 void SimonApp_HandleKeys( byte shift, byte keys );
//  158 void SimonApp_MessageMSGCB( afIncomingMSGPacket_t *pckt );
//  159 void SimonApp_SendTheMessage( void );
//  160 void SimonApp_SendTheSerial(void);
//  161 
//  162 /*added by Simon*/
//  163 static void rxCB(uint8 port,uint8 event); 
//  164 
//  165 /*********************************************************************
//  166  * NETWORK LAYER CALLBACKS
//  167  */
//  168 
//  169 /*********************************************************************
//  170  * PUBLIC FUNCTIONS
//  171  */
//  172 
//  173 /*********************************************************************
//  174  * @fn      SimonApp_Init
//  175  *
//  176  * @brief   Initialization function for the Generic App Task.
//  177  *          This is called during initialization and should contain
//  178  *          any application specific initialization (ie. hardware
//  179  *          initialization/setup, table initialization, power up
//  180  *          notificaiton ... ).
//  181  *
//  182  * @param   task_id - the ID assigned by OSAL.  This ID should be
//  183  *                    used to send messages and set timers.
//  184  *
//  185  * @return  none
//  186  */

        RSEG BANKED_CODE:CODE:NOROOT(0)
//  187 void SimonApp_Init( byte task_id )
SimonApp_Init:
        CFI Block cfiBlock0 Using cfiCommon0
        CFI Function SimonApp_Init
        CODE
//  188 {
        FUNCALL SimonApp_Init, afRegister
        LOCFRAME ISTACK, 0, STACK
        LOCFRAME PSTACK, 0, STACK
        LOCFRAME XSTACK, 38, STACK
        LOCFRAME IOVERLAY, 0, STATIC
        LOCFRAME DOVERLAY, 0, STATIC
        ARGFRAME ISTACK, 0, STACK
        ARGFRAME PSTACK, 0, STACK
        ARGFRAME XSTACK, 38, STACK
        ARGFRAME IOVERLAY, 0, STATIC
        ARGFRAME DOVERLAY, 0, STATIC
        FUNCALL SimonApp_Init, HalUARTOpen
        LOCFRAME ISTACK, 0, STACK
        LOCFRAME PSTACK, 0, STACK
        LOCFRAME XSTACK, 38, STACK
        LOCFRAME IOVERLAY, 0, STATIC
        LOCFRAME DOVERLAY, 0, STATIC
        ARGFRAME ISTACK, 0, STACK
        ARGFRAME PSTACK, 0, STACK
        ARGFRAME XSTACK, 38, STACK
        ARGFRAME IOVERLAY, 0, STATIC
        ARGFRAME DOVERLAY, 0, STATIC
        FUNCALL SimonApp_Init, RegisterForKeys
        LOCFRAME ISTACK, 0, STACK
        LOCFRAME PSTACK, 0, STACK
        LOCFRAME XSTACK, 38, STACK
        LOCFRAME IOVERLAY, 0, STATIC
        LOCFRAME DOVERLAY, 0, STATIC
        ARGFRAME ISTACK, 0, STACK
        ARGFRAME PSTACK, 0, STACK
        ARGFRAME XSTACK, 38, STACK
        ARGFRAME IOVERLAY, 0, STATIC
        ARGFRAME DOVERLAY, 0, STATIC
        FUNCALL SimonApp_Init, HalLcdWriteString
        LOCFRAME ISTACK, 0, STACK
        LOCFRAME PSTACK, 0, STACK
        LOCFRAME XSTACK, 38, STACK
        LOCFRAME IOVERLAY, 0, STATIC
        LOCFRAME DOVERLAY, 0, STATIC
        ARGFRAME ISTACK, 0, STACK
        ARGFRAME PSTACK, 0, STACK
        ARGFRAME XSTACK, 38, STACK
        ARGFRAME IOVERLAY, 0, STATIC
        ARGFRAME DOVERLAY, 0, STATIC
        FUNCALL SimonApp_Init, ZDO_RegisterForZDOMsg
        LOCFRAME ISTACK, 0, STACK
        LOCFRAME PSTACK, 0, STACK
        LOCFRAME XSTACK, 38, STACK
        LOCFRAME IOVERLAY, 0, STATIC
        LOCFRAME DOVERLAY, 0, STATIC
        ARGFRAME ISTACK, 0, STACK
        ARGFRAME PSTACK, 0, STACK
        ARGFRAME XSTACK, 38, STACK
        ARGFRAME IOVERLAY, 0, STATIC
        ARGFRAME DOVERLAY, 0, STATIC
        FUNCALL SimonApp_Init, ZDO_RegisterForZDOMsg
        LOCFRAME ISTACK, 0, STACK
        LOCFRAME PSTACK, 0, STACK
        LOCFRAME XSTACK, 38, STACK
        LOCFRAME IOVERLAY, 0, STATIC
        LOCFRAME DOVERLAY, 0, STATIC
        ARGFRAME ISTACK, 0, STACK
        ARGFRAME PSTACK, 0, STACK
        ARGFRAME XSTACK, 38, STACK
        ARGFRAME IOVERLAY, 0, STATIC
        ARGFRAME DOVERLAY, 0, STATIC
        MOV     A,#-0x9
        LCALL   ?BANKED_ENTER_XDATA
        CFI DPH0 load(1, XDATA, add(CFA_XSP16, literal(-1)))
        CFI DPL0 load(1, XDATA, add(CFA_XSP16, literal(-2)))
        CFI ?BRET_EXT load(1, XDATA, add(CFA_XSP16, literal(-3)))
        CFI ?RET_HIGH load(1, XDATA, add(CFA_XSP16, literal(-4)))
        CFI ?RET_LOW load(1, XDATA, add(CFA_XSP16, literal(-5)))
        CFI R7 load(1, XDATA, add(CFA_XSP16, literal(-6)))
        CFI V0 load(1, XDATA, add(CFA_XSP16, literal(-7)))
        CFI VB load(1, XDATA, add(CFA_XSP16, literal(-8)))
        CFI R6 load(1, XDATA, add(CFA_XSP16, literal(-9)))
        CFI CFA_SP SP+0
        CFI CFA_XSP16 add(XSP16, 9)
        ; Saved register size: 9
        ; Auto size: 29
        MOV     A,#-0x1d
        LCALL   ?ALLOC_XSTACK8
        CFI CFA_XSP16 add(XSP16, 38)
        MOV     A,R1
//  189   SimonApp_TaskID = task_id;
        MOV     DPTR,#SimonApp_TaskID
        MOVX    @DPTR,A
//  190   SimonApp_NwkState = DEV_INIT;
        MOV     DPTR,#SimonApp_NwkState
        MOV     A,#0x1
        MOVX    @DPTR,A
//  191   SimonApp_TransID = 0;
        MOV     DPTR,#SimonApp_TransID
        CLR     A
        MOVX    @DPTR,A
//  192   
//  193   /*added by Simon*/
//  194   halUARTCfg_t uartConfig;
//  195   
//  196 
//  197   // Device hardware initialization can be added here or in main() (Zmain.c).
//  198   // If the hardware is application specific - add it here.
//  199   // If the hardware is other parts of the device add it in main().
//  200 
//  201   SimonApp_DstAddr.addrMode = (afAddrMode_t)AddrNotPresent;
        MOV     DPTR,#SimonApp_DstAddr + 8
        MOVX    @DPTR,A
//  202   SimonApp_DstAddr.endPoint = 0;
        INC     DPTR
        MOVX    @DPTR,A
//  203   SimonApp_DstAddr.addr.shortAddr = 0;
        MOV     DPTR,#SimonApp_DstAddr
        MOVX    @DPTR,A
        INC     DPTR
        MOVX    @DPTR,A
//  204 
//  205   // Fill out the endpoint description.
//  206   SimonApp_epDesc.endPoint = SimonApp_ENDPOINT;
        MOV     DPTR,#SimonApp_epDesc
        MOV     A,#0xa
        MOVX    @DPTR,A
//  207   SimonApp_epDesc.task_id = &SimonApp_TaskID;
        INC     DPTR
        MOV     A,#SimonApp_TaskID & 0xff
        MOVX    @DPTR,A
        INC     DPTR
        MOV     A,#(SimonApp_TaskID >> 8) & 0xff
        MOVX    @DPTR,A
//  208   SimonApp_epDesc.simpleDesc
//  209             = (SimpleDescriptionFormat_t *)&SimonApp_SimpleDesc;
        INC     DPTR
        MOV     A,#SimonApp_SimpleDesc & 0xff
        MOVX    @DPTR,A
        INC     DPTR
        MOV     A,#(SimonApp_SimpleDesc >> 8) & 0xff
        MOVX    @DPTR,A
//  210   SimonApp_epDesc.latencyReq = noLatencyReqs;
        INC     DPTR
        CLR     A
        MOVX    @DPTR,A
//  211 
//  212   // Register the endpoint description with the AF
//  213   afRegister( &SimonApp_epDesc );
        ; Setup parameters for call to function afRegister
        MOV     R2,#SimonApp_epDesc & 0xff
        MOV     R3,#(SimonApp_epDesc >> 8) & 0xff
        LCALL   ??afRegister?relay
//  214   
//  215   /*added by Simon*/
//  216   uartConfig.configured = TRUE;
        MOV     DPL,?XSP + 0
        MOV     DPH,?XSP + 1
        MOV     A,#0x1
        MOVX    @DPTR,A
//  217   uartConfig.baudRate = HAL_UART_BR_115200;
        LCALL   ?XSTACK_DISP0_8
        MOV     A,#0x4
        MOVX    @DPTR,A
//  218   uartConfig.flowControl = FALSE;
        MOV     A,#0x2
        LCALL   ?XSTACK_DISP0_8
        CLR     A
        MOVX    @DPTR,A
//  219   uartConfig.callBackFunc = rxCB;
        MOV     A,#0x1b
        LCALL   ?XSTACK_DISP0_8
        MOV     A,#??rxCB?relay & 0xff
        MOVX    @DPTR,A
        INC     DPTR
        MOV     A,#(??rxCB?relay >> 8) & 0xff
        MOVX    @DPTR,A
//  220   HalUARTOpen(0,&uartConfig);
        ; Setup parameters for call to function HalUARTOpen
        MOV     DPL,?XSP + 0
        MOV     DPH,?XSP + 1
        MOV     R2,DPL
        MOV     R3,DPH
        MOV     R1,#0x0
        LCALL   ??HalUARTOpen?relay
//  221 
//  222   // Register for all key events - This app will handle all key events
//  223   RegisterForKeys( SimonApp_TaskID );
        ; Setup parameters for call to function RegisterForKeys
        MOV     DPTR,#SimonApp_TaskID
        MOVX    A,@DPTR
        MOV     R1,A
        LCALL   ??RegisterForKeys?relay
//  224 
//  225   // Update the display
//  226 #if defined ( LCD_SUPPORTED )
//  227     HalLcdWriteString( "SimonApp", HAL_LCD_LINE_1 );
        ; Setup parameters for call to function HalLcdWriteString
        MOV     R1,#0x1
        MOV     R2,#`?<Constant "SimonApp">` & 0xff
        MOV     R3,#(`?<Constant "SimonApp">` >> 8) & 0xff
        LCALL   ??HalLcdWriteString?relay
//  228 #endif
//  229     
//  230   ZDO_RegisterForZDOMsg( SimonApp_TaskID, End_Device_Bind_rsp );
        ; Setup parameters for call to function ZDO_RegisterForZDOMsg
        MOV     R2,#0x20
        MOV     R3,#-0x80
        MOV     DPTR,#SimonApp_TaskID
        MOVX    A,@DPTR
        MOV     R1,A
        LCALL   ??ZDO_RegisterForZDOMsg?relay
//  231   ZDO_RegisterForZDOMsg( SimonApp_TaskID, Match_Desc_rsp );
        ; Setup parameters for call to function ZDO_RegisterForZDOMsg
        MOV     R2,#0x6
        MOV     R3,#-0x80
        MOV     DPTR,#SimonApp_TaskID
        MOVX    A,@DPTR
        MOV     R1,A
        LCALL   ??ZDO_RegisterForZDOMsg?relay
//  232 }
        MOV     A,#0x1d
        LCALL   ?DEALLOC_XSTACK8
        CFI EndBlock cfiBlock0
        REQUIRE ?Subroutine0
        ; // Fall through to label ?Subroutine0

        RSEG BANKED_CODE:CODE:NOROOT(0)
?Subroutine0:
        CFI Block cfiBlock1 Using cfiCommon0
        CFI NoFunction
        CFI CFA_SP SP+0
        CFI CFA_XSP16 add(XSP16, 9)
        CFI VB load(1, XDATA, add(CFA_XSP16, literal(-8)))
        CFI DPL0 load(1, XDATA, add(CFA_XSP16, literal(-2)))
        CFI DPH0 load(1, XDATA, add(CFA_XSP16, literal(-1)))
        CFI R6 load(1, XDATA, add(CFA_XSP16, literal(-9)))
        CFI R7 load(1, XDATA, add(CFA_XSP16, literal(-6)))
        CFI V0 load(1, XDATA, add(CFA_XSP16, literal(-7)))
        CFI ?BRET_EXT load(1, XDATA, add(CFA_XSP16, literal(-3)))
        CFI ?RET_HIGH load(1, XDATA, add(CFA_XSP16, literal(-4)))
        CFI ?RET_LOW load(1, XDATA, add(CFA_XSP16, literal(-5)))
        MOV     R7,#0x1
        LJMP    ?BANKED_LEAVE_XDATA
        CFI EndBlock cfiBlock1
//  233 
//  234 /*********************************************************************
//  235  * @fn      SimonApp_ProcessEvent
//  236  *
//  237  * @brief   Generic Application Task event processor.  This function
//  238  *          is called to process all events for the task.  Events
//  239  *          include timers, messages and any other user defined events.
//  240  *
//  241  * @param   task_id  - The OSAL assigned task ID.
//  242  * @param   events - events to process.  This is a bit map and can
//  243  *                   contain more than one event.
//  244  *
//  245  * @return  none
//  246  */

        RSEG BANKED_CODE:CODE:NOROOT(0)
//  247 UINT16 SimonApp_ProcessEvent( byte task_id, UINT16 events )
SimonApp_ProcessEvent:
        CFI Block cfiBlock2 Using cfiCommon0
        CFI Function SimonApp_ProcessEvent
        CODE
//  248 {
        FUNCALL SimonApp_ProcessEvent, osal_msg_receive
        LOCFRAME ISTACK, 0, STACK
        LOCFRAME PSTACK, 0, STACK
        LOCFRAME XSTACK, 12, STACK
        LOCFRAME IOVERLAY, 0, STATIC
        LOCFRAME DOVERLAY, 0, STATIC
        ARGFRAME ISTACK, 0, STACK
        ARGFRAME PSTACK, 0, STACK
        ARGFRAME XSTACK, 12, STACK
        ARGFRAME IOVERLAY, 0, STATIC
        ARGFRAME DOVERLAY, 0, STATIC
        FUNCALL SimonApp_ProcessEvent, LS164_BYTE
        LOCFRAME ISTACK, 0, STACK
        LOCFRAME PSTACK, 0, STACK
        LOCFRAME XSTACK, 12, STACK
        LOCFRAME IOVERLAY, 0, STATIC
        LOCFRAME DOVERLAY, 0, STATIC
        ARGFRAME ISTACK, 0, STACK
        ARGFRAME PSTACK, 0, STACK
        ARGFRAME XSTACK, 12, STACK
        ARGFRAME IOVERLAY, 0, STATIC
        ARGFRAME DOVERLAY, 0, STATIC
        FUNCALL SimonApp_ProcessEvent, LS164_BYTE
        LOCFRAME ISTACK, 0, STACK
        LOCFRAME PSTACK, 0, STACK
        LOCFRAME XSTACK, 12, STACK
        LOCFRAME IOVERLAY, 0, STATIC
        LOCFRAME DOVERLAY, 0, STATIC
        ARGFRAME ISTACK, 0, STACK
        ARGFRAME PSTACK, 0, STACK
        ARGFRAME XSTACK, 12, STACK
        ARGFRAME IOVERLAY, 0, STATIC
        ARGFRAME DOVERLAY, 0, STATIC
        FUNCALL SimonApp_ProcessEvent, LS164_BYTE
        LOCFRAME ISTACK, 0, STACK
        LOCFRAME PSTACK, 0, STACK
        LOCFRAME XSTACK, 12, STACK
        LOCFRAME IOVERLAY, 0, STATIC
        LOCFRAME DOVERLAY, 0, STATIC
        ARGFRAME ISTACK, 0, STACK
        ARGFRAME PSTACK, 0, STACK
        ARGFRAME XSTACK, 12, STACK
        ARGFRAME IOVERLAY, 0, STATIC
        ARGFRAME DOVERLAY, 0, STATIC
        FUNCALL SimonApp_ProcessEvent, osal_msg_deallocate
        LOCFRAME ISTACK, 0, STACK
        LOCFRAME PSTACK, 0, STACK
        LOCFRAME XSTACK, 12, STACK
        LOCFRAME IOVERLAY, 0, STATIC
        LOCFRAME DOVERLAY, 0, STATIC
        ARGFRAME ISTACK, 0, STACK
        ARGFRAME PSTACK, 0, STACK
        ARGFRAME XSTACK, 12, STACK
        ARGFRAME IOVERLAY, 0, STATIC
        ARGFRAME DOVERLAY, 0, STATIC
        FUNCALL SimonApp_ProcessEvent, osal_msg_receive
        LOCFRAME ISTACK, 0, STACK
        LOCFRAME PSTACK, 0, STACK
        LOCFRAME XSTACK, 12, STACK
        LOCFRAME IOVERLAY, 0, STATIC
        LOCFRAME DOVERLAY, 0, STATIC
        ARGFRAME ISTACK, 0, STACK
        ARGFRAME PSTACK, 0, STACK
        ARGFRAME XSTACK, 12, STACK
        ARGFRAME IOVERLAY, 0, STATIC
        ARGFRAME DOVERLAY, 0, STATIC
        FUNCALL SimonApp_ProcessEvent, SimonApp_ProcessZDOMsgs
        LOCFRAME ISTACK, 0, STACK
        LOCFRAME PSTACK, 0, STACK
        LOCFRAME XSTACK, 12, STACK
        LOCFRAME IOVERLAY, 0, STATIC
        LOCFRAME DOVERLAY, 0, STATIC
        ARGFRAME ISTACK, 0, STACK
        ARGFRAME PSTACK, 0, STACK
        ARGFRAME XSTACK, 12, STACK
        ARGFRAME IOVERLAY, 0, STATIC
        ARGFRAME DOVERLAY, 0, STATIC
        FUNCALL SimonApp_ProcessEvent, LS164_BYTE
        LOCFRAME ISTACK, 0, STACK
        LOCFRAME PSTACK, 0, STACK
        LOCFRAME XSTACK, 12, STACK
        LOCFRAME IOVERLAY, 0, STATIC
        LOCFRAME DOVERLAY, 0, STATIC
        ARGFRAME ISTACK, 0, STACK
        ARGFRAME PSTACK, 0, STACK
        ARGFRAME XSTACK, 12, STACK
        ARGFRAME IOVERLAY, 0, STATIC
        ARGFRAME DOVERLAY, 0, STATIC
        FUNCALL SimonApp_ProcessEvent, SimonApp_MessageMSGCB
        LOCFRAME ISTACK, 0, STACK
        LOCFRAME PSTACK, 0, STACK
        LOCFRAME XSTACK, 12, STACK
        LOCFRAME IOVERLAY, 0, STATIC
        LOCFRAME DOVERLAY, 0, STATIC
        ARGFRAME ISTACK, 0, STACK
        ARGFRAME PSTACK, 0, STACK
        ARGFRAME XSTACK, 12, STACK
        ARGFRAME IOVERLAY, 0, STATIC
        ARGFRAME DOVERLAY, 0, STATIC
        FUNCALL SimonApp_ProcessEvent, SimonApp_SendTheSerial
        LOCFRAME ISTACK, 0, STACK
        LOCFRAME PSTACK, 0, STACK
        LOCFRAME XSTACK, 12, STACK
        LOCFRAME IOVERLAY, 0, STATIC
        LOCFRAME DOVERLAY, 0, STATIC
        ARGFRAME ISTACK, 0, STACK
        ARGFRAME PSTACK, 0, STACK
        ARGFRAME XSTACK, 12, STACK
        ARGFRAME IOVERLAY, 0, STATIC
        ARGFRAME DOVERLAY, 0, STATIC
        FUNCALL SimonApp_ProcessEvent, SimonApp_SendTheMessage
        LOCFRAME ISTACK, 0, STACK
        LOCFRAME PSTACK, 0, STACK
        LOCFRAME XSTACK, 12, STACK
        LOCFRAME IOVERLAY, 0, STATIC
        LOCFRAME DOVERLAY, 0, STATIC
        ARGFRAME ISTACK, 0, STACK
        ARGFRAME PSTACK, 0, STACK
        ARGFRAME XSTACK, 12, STACK
        ARGFRAME IOVERLAY, 0, STATIC
        ARGFRAME DOVERLAY, 0, STATIC
        MOV     A,#-0xc
        LCALL   ?BANKED_ENTER_XDATA
        CFI DPH0 load(1, XDATA, add(CFA_XSP16, literal(-1)))
        CFI DPL0 load(1, XDATA, add(CFA_XSP16, literal(-2)))
        CFI ?BRET_EXT load(1, XDATA, add(CFA_XSP16, literal(-3)))
        CFI ?RET_HIGH load(1, XDATA, add(CFA_XSP16, literal(-4)))
        CFI ?RET_LOW load(1, XDATA, add(CFA_XSP16, literal(-5)))
        CFI R7 load(1, XDATA, add(CFA_XSP16, literal(-6)))
        CFI V3 load(1, XDATA, add(CFA_XSP16, literal(-7)))
        CFI V2 load(1, XDATA, add(CFA_XSP16, literal(-8)))
        CFI V1 load(1, XDATA, add(CFA_XSP16, literal(-9)))
        CFI V0 load(1, XDATA, add(CFA_XSP16, literal(-10)))
        CFI VB load(1, XDATA, add(CFA_XSP16, literal(-11)))
        CFI R6 load(1, XDATA, add(CFA_XSP16, literal(-12)))
        CFI CFA_SP SP+0
        CFI CFA_XSP16 add(XSP16, 12)
        ; Saved register size: 12
        ; Auto size: 0
        MOV     ?V0 + 0,R2
        MOV     ?V0 + 1,R3
//  249   afIncomingMSGPacket_t *MSGpkt;
//  250   afDataConfirm_t *afDataConfirm;
//  251 
//  252   // Data Confirmation message fields
//  253   byte sentEP;
//  254   ZStatus_t sentStatus;
//  255   byte sentTransID;       // This should match the value sent
//  256   (void)task_id;  // Intentionally unreferenced parameter
//  257 
//  258   if ( events & SYS_EVENT_MSG )
        MOV     A,R3
        ANL     A,#0x80
        JNZ     $+5
        LJMP    ??SimonApp_ProcessEvent_0 & 0xFFFF
//  259   {
//  260     MSGpkt = (afIncomingMSGPacket_t *)osal_msg_receive( SimonApp_TaskID );
        ; Setup parameters for call to function osal_msg_receive
        SJMP    ??SimonApp_ProcessEvent_1
//  261     while ( MSGpkt )
//  262     {
//  263       switch ( MSGpkt->hdr.event )
//  264       {
//  265         case ZDO_CB_MSG:
//  266           SimonApp_ProcessZDOMsgs( (zdoIncomingMsg_t *)MSGpkt );
//  267           break;
//  268           
//  269         case KEY_CHANGE:
//  270           SimonApp_HandleKeys( ((keyChange_t *)MSGpkt)->state, ((keyChange_t *)MSGpkt)->keys );
//  271           break;
//  272 
//  273         case AF_DATA_CONFIRM_CMD:
//  274           // This message is received as a confirmation of a data packet sent.
//  275           // The status is of ZStatus_t type [defined in ZComDef.h]
//  276           // The message fields are defined in AF.h
//  277           afDataConfirm = (afDataConfirm_t *)MSGpkt;
//  278           sentEP = afDataConfirm->endpoint;
//  279           sentStatus = afDataConfirm->hdr.status;
//  280           sentTransID = afDataConfirm->transID;
//  281           (void)sentEP;
//  282           (void)sentTransID;
//  283 
//  284           // Action taken when confirmation is received.
//  285           if ( sentStatus != ZSuccess )
//  286           {
//  287             // The data wasn't delivered -- Do something
//  288           }
//  289           break;
//  290 
//  291         case AF_INCOMING_MSG_CMD:
//  292           SimonApp_MessageMSGCB( MSGpkt );
//  293           break;
//  294 
//  295         case ZDO_STATE_CHANGE:
//  296           SimonApp_NwkState = (devStates_t)(MSGpkt->hdr.status);
??SimonApp_ProcessEvent_2:
        INC     DPTR
        MOVX    A,@DPTR
        MOV     DPTR,#SimonApp_NwkState
        MOVX    @DPTR,A
//  297           if ( (SimonApp_NwkState == DEV_ZB_COORD)
//  298               || (SimonApp_NwkState == DEV_ROUTER)
//  299               || (SimonApp_NwkState == DEV_END_DEVICE) )
//  300           {
//  301             // Start sending "the" message in a regular interval.
//  302 //            osal_start_timerEx( SimonApp_TaskID,
//  303 //                                SimonApp_SEND_MSG_EVT,
//  304 //                              SimonApp_SEND_MSG_TIMEOUT );
//  305           }
//  306           
//  307           if(SimonApp_NwkState == DEV_ZB_COORD)
        XRL     A,#0x9
        JNZ     ??SimonApp_ProcessEvent_3
//  308           {
//  309             DEV_FLAG = 1;//1-->Cordinator
        MOV     DPTR,#DEV_FLAG
        MOV     A,#0x1
        MOVX    @DPTR,A
//  310             LS164_BYTE(11);
        ; Setup parameters for call to function LS164_BYTE
        MOV     R1,#0xb
        LCALL   ??LS164_BYTE?relay
//  311             //osal_set_event(SimonApp_TaskID,SimonApp_SEND_MSG_EVT);
//  312 //            osal_start_timerEx( SimonApp_TaskID,
//  313 //                        SimonApp_SEND_MSG_EVT,
//  314 //                      SimonApp_SEND_MSG_TIMEOUT );
//  315              
//  316           }
//  317           
//  318           if(SimonApp_NwkState == DEV_ROUTER)
??SimonApp_ProcessEvent_3:
        MOV     DPTR,#SimonApp_NwkState
        MOVX    A,@DPTR
        XRL     A,#0x7
        JNZ     ??SimonApp_ProcessEvent_4
//  319           {
//  320             DEV_FLAG = 2;//2-->Router
        MOV     DPTR,#DEV_FLAG
        MOV     A,#0x2
        MOVX    @DPTR,A
//  321              LS164_BYTE(12);
        ; Setup parameters for call to function LS164_BYTE
        MOV     R1,#0xc
        LCALL   ??LS164_BYTE?relay
//  322             
//  323           }
//  324           
//  325           if(SimonApp_NwkState == DEV_END_DEVICE)
??SimonApp_ProcessEvent_4:
        MOV     DPTR,#SimonApp_NwkState
        MOVX    A,@DPTR
        XRL     A,#0x6
        JNZ     ??SimonApp_ProcessEvent_5
//  326           {
//  327              DEV_FLAG = 3;//3-->EndDevice
        MOV     DPTR,#DEV_FLAG
        MOV     A,#0x3
        MOVX    @DPTR,A
//  328              LS164_BYTE(13);
        ; Setup parameters for call to function LS164_BYTE
        MOV     R1,#0xd
??SimonApp_ProcessEvent_6:
        LCALL   ??LS164_BYTE?relay
//  329           }
//  330           break;
//  331 
//  332         default:
//  333           break;
//  334       }
//  335 
//  336       // Release the memory
//  337       osal_msg_deallocate( (uint8 *)MSGpkt );
??SimonApp_ProcessEvent_5:
        ; Setup parameters for call to function osal_msg_deallocate
        MOV     A,R6
        MOV     R2,A
        MOV     A,R7
        MOV     R3,A
        LCALL   ??osal_msg_deallocate?relay
//  338 
//  339       // Next
//  340       MSGpkt = (afIncomingMSGPacket_t *)osal_msg_receive( SimonApp_TaskID );
        ; Setup parameters for call to function osal_msg_receive
??SimonApp_ProcessEvent_1:
        MOV     DPTR,#SimonApp_TaskID
        MOVX    A,@DPTR
        MOV     R1,A
        LCALL   ??osal_msg_receive?relay
        MOV     ?V0 + 2,R2
        MOV     ?V0 + 3,R3
        MOV     R6,?V0 + 2
        MOV     R7,?V0 + 3
        MOV     A,R6
        ORL     A,R7
        JZ      ??SimonApp_ProcessEvent_7
        MOV     DPL,R6
        MOV     DPH,R7
        MOVX    A,@DPTR
        ADD     A,#-0x1a
        JZ      ??SimonApp_ProcessEvent_8
        ADD     A,#0x5a
        JZ      ??SimonApp_ProcessEvent_9
        ADD     A,#-0x11
        JZ      ??SimonApp_ProcessEvent_2
        ADD     A,#-0x2
        JNZ     ??SimonApp_ProcessEvent_5
        ; Setup parameters for call to function SimonApp_ProcessZDOMsgs
        MOV     A,R6
        MOV     R2,A
        MOV     A,R7
        MOV     R3,A
        LCALL   ??SimonApp_ProcessZDOMsgs?relay
        SJMP    ??SimonApp_ProcessEvent_5
??SimonApp_ProcessEvent_9:
        ; Setup parameters for call to function LS164_BYTE
        INC     DPTR
        INC     DPTR
        INC     DPTR
        MOVX    A,@DPTR
        MOV     R1,A
        SJMP    ??SimonApp_ProcessEvent_6
??SimonApp_ProcessEvent_8:
        ; Setup parameters for call to function SimonApp_MessageMSGCB
        MOV     A,R6
        MOV     R2,A
        MOV     A,R7
        MOV     R3,A
        LCALL   ??SimonApp_MessageMSGCB?relay
        SJMP    ??SimonApp_ProcessEvent_5
//  341     }
//  342 
//  343     // return unprocessed events
//  344     return (events ^ SYS_EVENT_MSG);
??SimonApp_ProcessEvent_7:
        MOV     R2,?V0 + 0
        MOV     A,?V0 + 1
        XRL     A,#0x80
        MOV     R3,A
        SJMP    ??SimonApp_ProcessEvent_10
//  345   }
//  346 
//  347   // Send a message out - This event is generated by a timer
//  348   //  (setup in SimonApp_Init()).
//  349   
//  350   
//  351   /*added  by Simon*/
//  352    if ( events & Serial_CallBack_EVT )
??SimonApp_ProcessEvent_0:
        MOV     A,R2
        ANL     A,#0x2
        JZ      ??SimonApp_ProcessEvent_11
//  353    {
//  354      SimonApp_SendTheSerial();
        ; Setup parameters for call to function SimonApp_SendTheSerial
        LCALL   ??SimonApp_SendTheSerial?relay
//  355      return (events ^ Serial_CallBack_EVT);
        MOV     A,?V0 + 0
        XRL     A,#0x2
??SimonApp_ProcessEvent_12:
        MOV     R2,A
        MOV     R3,?V0 + 1
        SJMP    ??SimonApp_ProcessEvent_10
//  356    }
//  357   
//  358   
//  359   if ( events & SimonApp_SEND_MSG_EVT )
??SimonApp_ProcessEvent_11:
        MOV     A,R2
        MOV     C,0xE0 /* A   */.0
        JNC     ??SimonApp_ProcessEvent_13
//  360   {
//  361     // Send "the" message
//  362     SimonApp_SendTheMessage();
        ; Setup parameters for call to function SimonApp_SendTheMessage
        LCALL   ??SimonApp_SendTheMessage?relay
//  363 
//  364     // Setup to send message again
//  365     //osal_start_timerEx( SimonApp_TaskID,
//  366 //                        SimonApp_SEND_MSG_EVT,
//  367 //                      SimonApp_SEND_MSG_TIMEOUT );
//  368 
//  369     // return unprocessed events
//  370 //    P0_1 = 0;//µãÁÁLED2
//  371 //    keyChange_t *msgPtr;
//  372 //    msgPtr = (keyChange_t *)osal_msg_allocate( sizeof(keyChange_t) );
//  373 //    if ( msgPtr )
//  374 //    {
//  375 //      msgPtr->hdr.event = KEY_CHANGE;
//  376 //       msgPtr->keys=3;
//  377 //    
//  378 //      osal_msg_send( SimonApp_TaskID, (uint8 *)msgPtr );
//  379 //    }
//  380     return (events ^ SimonApp_SEND_MSG_EVT);
        MOV     A,?V0 + 0
        XRL     A,#0x1
        SJMP    ??SimonApp_ProcessEvent_12
//  381   }
//  382 
//  383   // Discard unknown events
//  384   return 0;
??SimonApp_ProcessEvent_13:
        MOV     R2,#0x0
        MOV     R3,#0x0
        CFI EndBlock cfiBlock2
??SimonApp_ProcessEvent_10:
        REQUIRE ?Subroutine1
        ; // Fall through to label ?Subroutine1
//  385 }

        RSEG BANKED_CODE:CODE:NOROOT(0)
?Subroutine1:
        CFI Block cfiBlock3 Using cfiCommon0
        CFI NoFunction
        CFI CFA_SP SP+0
        CFI CFA_XSP16 add(XSP16, 12)
        CFI VB load(1, XDATA, add(CFA_XSP16, literal(-11)))
        CFI DPL0 load(1, XDATA, add(CFA_XSP16, literal(-2)))
        CFI DPH0 load(1, XDATA, add(CFA_XSP16, literal(-1)))
        CFI R6 load(1, XDATA, add(CFA_XSP16, literal(-12)))
        CFI R7 load(1, XDATA, add(CFA_XSP16, literal(-6)))
        CFI V0 load(1, XDATA, add(CFA_XSP16, literal(-10)))
        CFI V1 load(1, XDATA, add(CFA_XSP16, literal(-9)))
        CFI V2 load(1, XDATA, add(CFA_XSP16, literal(-8)))
        CFI V3 load(1, XDATA, add(CFA_XSP16, literal(-7)))
        CFI ?BRET_EXT load(1, XDATA, add(CFA_XSP16, literal(-3)))
        CFI ?RET_HIGH load(1, XDATA, add(CFA_XSP16, literal(-4)))
        CFI ?RET_LOW load(1, XDATA, add(CFA_XSP16, literal(-5)))
        MOV     R7,#0x4
        LJMP    ?BANKED_LEAVE_XDATA
        CFI EndBlock cfiBlock3
//  386 
//  387 /*********************************************************************
//  388  * Event Generation Functions
//  389  */
//  390 
//  391 /*********************************************************************
//  392  * @fn      SimonApp_ProcessZDOMsgs()
//  393  *
//  394  * @brief   Process response messages
//  395  *
//  396  * @param   none
//  397  *
//  398  * @return  none
//  399  */

        RSEG BANKED_CODE:CODE:NOROOT(0)
//  400 void SimonApp_ProcessZDOMsgs( zdoIncomingMsg_t *inMsg )
SimonApp_ProcessZDOMsgs:
        CFI Block cfiBlock4 Using cfiCommon0
        CFI Function SimonApp_ProcessZDOMsgs
        CODE
//  401 {
        FUNCALL SimonApp_ProcessZDOMsgs, HalLedSet
        LOCFRAME ISTACK, 0, STACK
        LOCFRAME PSTACK, 0, STACK
        LOCFRAME XSTACK, 10, STACK
        LOCFRAME IOVERLAY, 0, STATIC
        LOCFRAME DOVERLAY, 0, STATIC
        ARGFRAME ISTACK, 0, STACK
        ARGFRAME PSTACK, 0, STACK
        ARGFRAME XSTACK, 10, STACK
        ARGFRAME IOVERLAY, 0, STATIC
        ARGFRAME DOVERLAY, 0, STATIC
        FUNCALL SimonApp_ProcessZDOMsgs, HalLedSet
        LOCFRAME ISTACK, 0, STACK
        LOCFRAME PSTACK, 0, STACK
        LOCFRAME XSTACK, 10, STACK
        LOCFRAME IOVERLAY, 0, STATIC
        LOCFRAME DOVERLAY, 0, STATIC
        ARGFRAME ISTACK, 0, STACK
        ARGFRAME PSTACK, 0, STACK
        ARGFRAME XSTACK, 10, STACK
        ARGFRAME IOVERLAY, 0, STATIC
        ARGFRAME DOVERLAY, 0, STATIC
        FUNCALL SimonApp_ProcessZDOMsgs, ZDO_ParseEPListRsp
        LOCFRAME ISTACK, 0, STACK
        LOCFRAME PSTACK, 0, STACK
        LOCFRAME XSTACK, 10, STACK
        LOCFRAME IOVERLAY, 0, STATIC
        LOCFRAME DOVERLAY, 0, STATIC
        ARGFRAME ISTACK, 0, STACK
        ARGFRAME PSTACK, 0, STACK
        ARGFRAME XSTACK, 10, STACK
        ARGFRAME IOVERLAY, 0, STATIC
        ARGFRAME DOVERLAY, 0, STATIC
        FUNCALL SimonApp_ProcessZDOMsgs, HalLedSet
        LOCFRAME ISTACK, 0, STACK
        LOCFRAME PSTACK, 0, STACK
        LOCFRAME XSTACK, 10, STACK
        LOCFRAME IOVERLAY, 0, STATIC
        LOCFRAME DOVERLAY, 0, STATIC
        ARGFRAME ISTACK, 0, STACK
        ARGFRAME PSTACK, 0, STACK
        ARGFRAME XSTACK, 10, STACK
        ARGFRAME IOVERLAY, 0, STATIC
        ARGFRAME DOVERLAY, 0, STATIC
        FUNCALL SimonApp_ProcessZDOMsgs, osal_mem_free
        LOCFRAME ISTACK, 0, STACK
        LOCFRAME PSTACK, 0, STACK
        LOCFRAME XSTACK, 10, STACK
        LOCFRAME IOVERLAY, 0, STATIC
        LOCFRAME DOVERLAY, 0, STATIC
        ARGFRAME ISTACK, 0, STACK
        ARGFRAME PSTACK, 0, STACK
        ARGFRAME XSTACK, 10, STACK
        ARGFRAME IOVERLAY, 0, STATIC
        ARGFRAME DOVERLAY, 0, STATIC
        MOV     A,#-0xa
        LCALL   ?BANKED_ENTER_XDATA
        CFI DPH0 load(1, XDATA, add(CFA_XSP16, literal(-1)))
        CFI DPL0 load(1, XDATA, add(CFA_XSP16, literal(-2)))
        CFI ?BRET_EXT load(1, XDATA, add(CFA_XSP16, literal(-3)))
        CFI ?RET_HIGH load(1, XDATA, add(CFA_XSP16, literal(-4)))
        CFI ?RET_LOW load(1, XDATA, add(CFA_XSP16, literal(-5)))
        CFI R7 load(1, XDATA, add(CFA_XSP16, literal(-6)))
        CFI V1 load(1, XDATA, add(CFA_XSP16, literal(-7)))
        CFI V0 load(1, XDATA, add(CFA_XSP16, literal(-8)))
        CFI VB load(1, XDATA, add(CFA_XSP16, literal(-9)))
        CFI R6 load(1, XDATA, add(CFA_XSP16, literal(-10)))
        CFI CFA_SP SP+0
        CFI CFA_XSP16 add(XSP16, 10)
        ; Saved register size: 10
        ; Auto size: 0
//  402   switch ( inMsg->clusterID )
        MOV     A,R2
        ADD     A,#0xc
        LCALL   ?Subroutine3 & 0xFFFF
??CrossCallReturnLabel_0:
        MOV     R0,#?V0 + 0
        LCALL   ?US_SWITCH_SPARSE
`?<Jumptable for SimonApp_ProcessZDOMsgs>_0`:
        DATA
        DATA16
        DATA
        DATA16
        DATA
        DATA16
        DW        0
        DATA
        DATA16
        DATA
        DATA16
        DATA
        DATA16
        DW        2
        DATA
        DATA16
        DATA
        DATA16
        DATA
        DATA16
        DW        32774
        DATA
        DATA16
        DATA
        DATA16
        DATA
        DATA16
        DW        ??SimonApp_ProcessZDOMsgs_0
        DATA
        DATA16
        DATA
        DATA16
        DATA
        DATA16
        DW        32800
        DATA
        DATA16
        DATA
        DATA16
        DATA
        DATA16
        DW        ??SimonApp_ProcessZDOMsgs_1
        DATA
        DATA16
        DATA
        DATA16
        DW        ??SimonApp_ProcessZDOMsgs_2
        CODE
//  403   {
//  404     case End_Device_Bind_rsp:
//  405       if ( ZDO_ParseBindRsp( inMsg ) == ZSuccess )
??SimonApp_ProcessZDOMsgs_1:
        MOV     A,R2
        ADD     A,#0x13
        MOV     DPL,A
        MOV     A,R3
        ADDC    A,#0x0
        MOV     DPH,A
        MOVX    A,@DPTR
        MOV     R0,A
        INC     DPTR
        MOVX    A,@DPTR
        MOV     DPH,A
        MOV     DPL,R0
        MOVX    A,@DPTR
        JNZ     ??SimonApp_ProcessZDOMsgs_3
//  406       {
//  407         // Light LED
//  408         HalLedSet( HAL_LED_4, HAL_LED_MODE_ON );
        ; Setup parameters for call to function HalLedSet
        MOV     R2,#0x1
??SimonApp_ProcessZDOMsgs_4:
        MOV     R1,#0x8
        LCALL   ??HalLedSet?relay
        SJMP    ??SimonApp_ProcessZDOMsgs_2
//  409       }
//  410 #if defined(BLINK_LEDS)
//  411       else
//  412       {
//  413         // Flash LED to show failure
//  414         HalLedSet ( HAL_LED_4, HAL_LED_MODE_FLASH );
??SimonApp_ProcessZDOMsgs_3:
        ; Setup parameters for call to function HalLedSet
        MOV     R2,#0x4
        SJMP    ??SimonApp_ProcessZDOMsgs_4
//  415       }
//  416 #endif
//  417       break;
//  418 
//  419     case Match_Desc_rsp:
//  420       {
//  421         ZDO_ActiveEndpointRsp_t *pRsp = ZDO_ParseEPListRsp( inMsg );
??SimonApp_ProcessZDOMsgs_0:
        ; Setup parameters for call to function ZDO_ParseEPListRsp
        LCALL   ??ZDO_ParseEPListRsp?relay
        MOV     ?V0 + 0,R2
        MOV     ?V0 + 1,R3
        MOV     R6,?V0 + 0
        MOV     R7,?V0 + 1
//  422         if ( pRsp )
        MOV     A,R6
        ORL     A,R7
        JZ      ??SimonApp_ProcessZDOMsgs_2
//  423         {
//  424           if ( pRsp->status == ZSuccess && pRsp->cnt )
        MOV     DPL,R6
        MOV     DPH,R7
        MOVX    A,@DPTR
        JNZ     ??SimonApp_ProcessZDOMsgs_5
        INC     DPTR
        INC     DPTR
        INC     DPTR
        MOVX    A,@DPTR
        JZ      ??SimonApp_ProcessZDOMsgs_5
//  425           {
//  426             SimonApp_DstAddr.addrMode = (afAddrMode_t)Addr16Bit;
        MOV     DPTR,#SimonApp_DstAddr + 8
        MOV     A,#0x2
        MOVX    @DPTR,A
//  427             SimonApp_DstAddr.addr.shortAddr = pRsp->nwkAddr;
        MOV     DPL,R6
        MOV     DPH,R7
        INC     DPTR
        MOVX    A,@DPTR
        MOV     R0,A
        INC     DPTR
        MOVX    A,@DPTR
        MOV     R1,A
        MOV     DPTR,#SimonApp_DstAddr
        MOV     A,R0
        MOVX    @DPTR,A
        INC     DPTR
        MOV     A,R1
        MOVX    @DPTR,A
//  428             // Take the first endpoint, Can be changed to search through endpoints
//  429             SimonApp_DstAddr.endPoint = pRsp->epList[0];
        MOV     DPL,R6
        MOV     DPH,R7
        INC     DPTR
        INC     DPTR
        INC     DPTR
        INC     DPTR
        MOVX    A,@DPTR
        MOV     DPTR,#SimonApp_DstAddr + 9
        MOVX    @DPTR,A
//  430 
//  431             // Light LED
//  432             HalLedSet( HAL_LED_4, HAL_LED_MODE_ON );
        ; Setup parameters for call to function HalLedSet
        MOV     R2,#0x1
        MOV     R1,#0x8
        LCALL   ??HalLedSet?relay
//  433           }
//  434           osal_mem_free( pRsp );
??SimonApp_ProcessZDOMsgs_5:
        ; Setup parameters for call to function osal_mem_free
        MOV     A,R6
        MOV     R2,A
        MOV     A,R7
        MOV     R3,A
        LCALL   ??osal_mem_free?relay
        CFI EndBlock cfiBlock4
//  435         }
//  436       }
//  437       break;
//  438   }
//  439 }
??SimonApp_ProcessZDOMsgs_2:
        REQUIRE ?Subroutine2
        ; // Fall through to label ?Subroutine2

        RSEG BANKED_CODE:CODE:NOROOT(0)
?Subroutine2:
        CFI Block cfiBlock5 Using cfiCommon0
        CFI NoFunction
        CFI CFA_SP SP+0
        CFI CFA_XSP16 add(XSP16, 10)
        CFI VB load(1, XDATA, add(CFA_XSP16, literal(-9)))
        CFI DPL0 load(1, XDATA, add(CFA_XSP16, literal(-2)))
        CFI DPH0 load(1, XDATA, add(CFA_XSP16, literal(-1)))
        CFI R6 load(1, XDATA, add(CFA_XSP16, literal(-10)))
        CFI R7 load(1, XDATA, add(CFA_XSP16, literal(-6)))
        CFI V0 load(1, XDATA, add(CFA_XSP16, literal(-8)))
        CFI V1 load(1, XDATA, add(CFA_XSP16, literal(-7)))
        CFI ?BRET_EXT load(1, XDATA, add(CFA_XSP16, literal(-3)))
        CFI ?RET_HIGH load(1, XDATA, add(CFA_XSP16, literal(-4)))
        CFI ?RET_LOW load(1, XDATA, add(CFA_XSP16, literal(-5)))
        MOV     R7,#0x2
        LJMP    ?BANKED_LEAVE_XDATA
        CFI EndBlock cfiBlock5
//  440 
//  441 /*********************************************************************
//  442  * @fn      SimonApp_HandleKeys
//  443  *
//  444  * @brief   Handles all key events for this device.
//  445  *
//  446  * @param   shift - true if in shift/alt.
//  447  * @param   keys - bit field for key events. Valid entries:
//  448  *                 HAL_KEY_SW_4
//  449  *                 HAL_KEY_SW_3
//  450  *                 HAL_KEY_SW_2
//  451  *                 HAL_KEY_SW_1
//  452  *
//  453  * @return  none
//  454  */

        RSEG BANKED_CODE:CODE:NOROOT(0)
//  455 void SimonApp_HandleKeys( byte shift, byte keys )
SimonApp_HandleKeys:
        CFI Block cfiBlock6 Using cfiCommon0
        CFI Function SimonApp_HandleKeys
        CODE
//  456 {
        FUNCALL SimonApp_HandleKeys, LS164_BYTE
        LOCFRAME ISTACK, 0, STACK
        LOCFRAME PSTACK, 0, STACK
        LOCFRAME XSTACK, 9, STACK
        LOCFRAME IOVERLAY, 0, STATIC
        LOCFRAME DOVERLAY, 0, STATIC
        ARGFRAME ISTACK, 0, STACK
        ARGFRAME PSTACK, 0, STACK
        ARGFRAME XSTACK, 9, STACK
        ARGFRAME IOVERLAY, 0, STATIC
        ARGFRAME DOVERLAY, 0, STATIC
        MOV     A,#-0x9
        LCALL   ?BANKED_ENTER_XDATA
        CFI DPH0 load(1, XDATA, add(CFA_XSP16, literal(-1)))
        CFI DPL0 load(1, XDATA, add(CFA_XSP16, literal(-2)))
        CFI ?BRET_EXT load(1, XDATA, add(CFA_XSP16, literal(-3)))
        CFI ?RET_HIGH load(1, XDATA, add(CFA_XSP16, literal(-4)))
        CFI ?RET_LOW load(1, XDATA, add(CFA_XSP16, literal(-5)))
        CFI R7 load(1, XDATA, add(CFA_XSP16, literal(-6)))
        CFI V0 load(1, XDATA, add(CFA_XSP16, literal(-7)))
        CFI VB load(1, XDATA, add(CFA_XSP16, literal(-8)))
        CFI R6 load(1, XDATA, add(CFA_XSP16, literal(-9)))
        CFI CFA_SP SP+0
        CFI CFA_XSP16 add(XSP16, 9)
        ; Saved register size: 9
        ; Auto size: 0
        MOV     A,R2
//  457   zAddrType_t dstAddr;
//  458   
//  459   LS164_BYTE(keys);
        ; Setup parameters for call to function LS164_BYTE
        MOV     R1,A
        LCALL   ??LS164_BYTE?relay
//  460   
//  461   // Shift is used to make each button/switch dual purpose.
//  462   if ( shift )
//  463   {
//  464     if ( keys & HAL_KEY_SW_1 )
//  465     {
//  466     }
//  467     if ( keys & HAL_KEY_SW_2 )
//  468     {
//  469     }
//  470     if ( keys & HAL_KEY_SW_3 )
//  471     {
//  472     }
//  473     if ( keys & HAL_KEY_SW_4 )
//  474     {
//  475     }
//  476   }
//  477   else
//  478   {
//  479     if ( keys & HAL_KEY_SW_1 )
//  480     {
//  481     }
//  482 
//  483     if ( keys & HAL_KEY_SW_2 )
//  484     {
//  485 //      HalLedSet ( HAL_LED_4, HAL_LED_MODE_OFF );
//  486 //
//  487 //      // Initiate an End Device Bind Request for the mandatory endpoint
//  488 //      dstAddr.addrMode = Addr16Bit;
//  489 //      dstAddr.addr.shortAddr = 0x0000; // Coordinator
//  490 //      ZDP_EndDeviceBindReq( &dstAddr, NLME_GetShortAddr(), 
//  491 //                            SimonApp_epDesc.endPoint,
//  492 //                            SimonApp_PROFID,
//  493 //                            SimonApp_MAX_CLUSTERS, (cId_t *)SimonApp_ClusterList,
//  494 //                            SimonApp_MAX_CLUSTERS, (cId_t *)SimonApp_ClusterList,
//  495 //                            FALSE );
//  496     }
//  497 
//  498     if ( keys & HAL_KEY_SW_3 )
//  499     {
//  500     }
//  501 
//  502     if ( keys & HAL_KEY_SW_4 )
//  503     {
//  504 //      HalLedSet ( HAL_LED_4, HAL_LED_MODE_OFF );
//  505 //      // Initiate a Match Description Request (Service Discovery)
//  506 //      dstAddr.addrMode = AddrBroadcast;
//  507 //      dstAddr.addr.shortAddr = NWK_BROADCAST_SHORTADDR;
//  508 //      ZDP_MatchDescReq( &dstAddr, NWK_BROADCAST_SHORTADDR,
//  509 //                        SimonApp_PROFID,
//  510 //                        SimonApp_MAX_CLUSTERS, (cId_t *)SimonApp_ClusterList,
//  511 //                        SimonApp_MAX_CLUSTERS, (cId_t *)SimonApp_ClusterList,
//  512 //                        FALSE );
//  513     }
//  514   }
//  515 }
        LJMP    ?Subroutine0 & 0xFFFF
        CFI EndBlock cfiBlock6
//  516 
//  517 /*********************************************************************
//  518  * LOCAL FUNCTIONS
//  519  */
//  520 
//  521 /*********************************************************************
//  522  * @fn      SimonApp_MessageMSGCB
//  523  *
//  524  * @brief   Data message processor callback.  This function processes
//  525  *          any incoming data - probably from other devices.  So, based
//  526  *          on cluster ID, perform the intended action.
//  527  *
//  528  * @param   none
//  529  *
//  530  * @return  none
//  531  */

        RSEG BANKED_CODE:CODE:NOROOT(0)
//  532 void SimonApp_MessageMSGCB( afIncomingMSGPacket_t *pkt )
SimonApp_MessageMSGCB:
        CFI Block cfiBlock7 Using cfiCommon0
        CFI Function SimonApp_MessageMSGCB
        CODE
//  533 {
        FUNCALL SimonApp_MessageMSGCB, osal_memcpy
        LOCFRAME ISTACK, 0, STACK
        LOCFRAME PSTACK, 0, STACK
        LOCFRAME XSTACK, 14, STACK
        LOCFRAME IOVERLAY, 0, STATIC
        LOCFRAME DOVERLAY, 0, STATIC
        ARGFRAME ISTACK, 0, STACK
        ARGFRAME PSTACK, 0, STACK
        ARGFRAME XSTACK, 14, STACK
        ARGFRAME IOVERLAY, 0, STATIC
        ARGFRAME DOVERLAY, 0, STATIC
        FUNCALL SimonApp_MessageMSGCB, HalUARTWrite
        LOCFRAME ISTACK, 0, STACK
        LOCFRAME PSTACK, 0, STACK
        LOCFRAME XSTACK, 11, STACK
        LOCFRAME IOVERLAY, 0, STATIC
        LOCFRAME DOVERLAY, 0, STATIC
        ARGFRAME ISTACK, 0, STACK
        ARGFRAME PSTACK, 0, STACK
        ARGFRAME XSTACK, 11, STACK
        ARGFRAME IOVERLAY, 0, STATIC
        ARGFRAME DOVERLAY, 0, STATIC
        FUNCALL SimonApp_MessageMSGCB, osal_memset
        LOCFRAME ISTACK, 0, STACK
        LOCFRAME PSTACK, 0, STACK
        LOCFRAME XSTACK, 11, STACK
        LOCFRAME IOVERLAY, 0, STATIC
        LOCFRAME DOVERLAY, 0, STATIC
        ARGFRAME ISTACK, 0, STACK
        ARGFRAME PSTACK, 0, STACK
        ARGFRAME XSTACK, 11, STACK
        ARGFRAME IOVERLAY, 0, STATIC
        ARGFRAME DOVERLAY, 0, STATIC
        MOV     A,#-0xb
        LCALL   ?BANKED_ENTER_XDATA
        CFI DPH0 load(1, XDATA, add(CFA_XSP16, literal(-1)))
        CFI DPL0 load(1, XDATA, add(CFA_XSP16, literal(-2)))
        CFI ?BRET_EXT load(1, XDATA, add(CFA_XSP16, literal(-3)))
        CFI ?RET_HIGH load(1, XDATA, add(CFA_XSP16, literal(-4)))
        CFI ?RET_LOW load(1, XDATA, add(CFA_XSP16, literal(-5)))
        CFI R7 load(1, XDATA, add(CFA_XSP16, literal(-6)))
        CFI V2 load(1, XDATA, add(CFA_XSP16, literal(-7)))
        CFI V1 load(1, XDATA, add(CFA_XSP16, literal(-8)))
        CFI V0 load(1, XDATA, add(CFA_XSP16, literal(-9)))
        CFI VB load(1, XDATA, add(CFA_XSP16, literal(-10)))
        CFI R6 load(1, XDATA, add(CFA_XSP16, literal(-11)))
        CFI CFA_SP SP+0
        CFI CFA_XSP16 add(XSP16, 11)
        ; Saved register size: 11
        ; Auto size: 0
//  534   switch ( pkt->clusterId )
        MOV     DPL,R2
        MOV     DPH,R3
        INC     DPTR
        INC     DPTR
        INC     DPTR
        INC     DPTR
        MOVX    A,@DPTR
        XRL     A,#0x1
        JNZ     ??SimonApp_MessageMSGCB_0
        INC     DPTR
        MOVX    A,@DPTR
??SimonApp_MessageMSGCB_0:
        JNZ     ??SimonApp_MessageMSGCB_1
//  535   {
//  536     case SimonApp_CLUSTERID:
//  537       // "the" message
//  538 //#if defined( LCD_SUPPORTED )
//  539 //      HalLcdWriteScreen( (char*)pkt->cmd.Data, "rcvd" );
//  540 //#elif defined( WIN32 )
//  541 //      WPRINTSTR( pkt->cmd.Data );
//  542 //#endif
//  543       osal_memcpy(uartbuf,(unsigned char*)pkt->cmd.Data,pkt->cmd.DataLength);
        MOV     A,R2
        ADD     A,#0x1f
        MOV     R0,A
        MOV     A,R3
        ADDC    A,#0x0
        MOV     R1,A
        MOV     A,R0
        MOV     R6,A
        MOV     A,R1
        MOV     R7,A
        ; Setup parameters for call to function osal_memcpy
        MOV     A,R2
        ADD     A,#0x21
        LCALL   ?Subroutine3 & 0xFFFF
??CrossCallReturnLabel_1:
        MOV     ?V0 + 2,#0x0
        MOV     R0,#?V0 + 0
        LCALL   ?PUSH_XSTACK_I_THREE
        CFI CFA_XSP16 add(XSP16, 14)
        LCALL   ?Subroutine4 & 0xFFFF
??CrossCallReturnLabel_2:
        LCALL   ??osal_memcpy?relay
        MOV     A,#0x3
        LCALL   ?DEALLOC_XSTACK8
        CFI CFA_XSP16 add(XSP16, 11)
//  544       HalUARTWrite(0,uartbuf,pkt->cmd.DataLength);
        ; Setup parameters for call to function HalUARTWrite
        LCALL   ?Subroutine4 & 0xFFFF
??CrossCallReturnLabel_3:
        MOV     R1,#0x0
        LCALL   ??HalUARTWrite?relay
//  545       osal_memset(uartbuf,0,UART_MAX);
        ; Setup parameters for call to function osal_memset
        MOV     R4,#0x70
        MOV     R5,#0x0
        MOV     R1,#0x0
        MOV     R2,#uartbuf & 0xff
        MOV     R3,#(uartbuf >> 8) & 0xff
        LCALL   ??osal_memset?relay
//  546       break;
//  547   }
//  548 }
??SimonApp_MessageMSGCB_1:
        MOV     R7,#0x3
        LJMP    ?BANKED_LEAVE_XDATA
        CFI EndBlock cfiBlock7

        RSEG BANKED_CODE:CODE:NOROOT(0)
?Subroutine4:
        CFI Block cfiCond8 Using cfiCommon0
        CFI NoFunction
        CFI Conditional ??CrossCallReturnLabel_2
        CFI R6 load(1, XDATA, add(CFA_XSP16, literal(-11)))
        CFI VB load(1, XDATA, add(CFA_XSP16, literal(-10)))
        CFI V0 load(1, XDATA, add(CFA_XSP16, literal(-9)))
        CFI V1 load(1, XDATA, add(CFA_XSP16, literal(-8)))
        CFI V2 load(1, XDATA, add(CFA_XSP16, literal(-7)))
        CFI R7 load(1, XDATA, add(CFA_XSP16, literal(-6)))
        CFI ?RET_LOW load(1, XDATA, add(CFA_XSP16, literal(-5)))
        CFI ?RET_HIGH load(1, XDATA, add(CFA_XSP16, literal(-4)))
        CFI ?BRET_EXT load(1, XDATA, add(CFA_XSP16, literal(-3)))
        CFI DPL0 load(1, XDATA, add(CFA_XSP16, literal(-2)))
        CFI DPH0 load(1, XDATA, add(CFA_XSP16, literal(-1)))
        CFI CFA_SP SP+0
        CFI CFA_XSP16 add(XSP16, 14)
        CFI Block cfiCond9 Using cfiCommon0
        CFI (cfiCond9) NoFunction
        CFI (cfiCond9) Conditional ??CrossCallReturnLabel_3
        CFI (cfiCond9) R6 load(1, XDATA, add(CFA_XSP16, literal(-11)))
        CFI (cfiCond9) VB load(1, XDATA, add(CFA_XSP16, literal(-10)))
        CFI (cfiCond9) V0 load(1, XDATA, add(CFA_XSP16, literal(-9)))
        CFI (cfiCond9) V1 load(1, XDATA, add(CFA_XSP16, literal(-8)))
        CFI (cfiCond9) V2 load(1, XDATA, add(CFA_XSP16, literal(-7)))
        CFI (cfiCond9) R7 load(1, XDATA, add(CFA_XSP16, literal(-6)))
        CFI (cfiCond9) ?RET_LOW load(1, XDATA, add(CFA_XSP16, literal(-5)))
        CFI (cfiCond9) ?RET_HIGH load(1, XDATA, add(CFA_XSP16, literal(-4)))
        CFI (cfiCond9) ?BRET_EXT load(1, XDATA, add(CFA_XSP16, literal(-3)))
        CFI (cfiCond9) DPL0 load(1, XDATA, add(CFA_XSP16, literal(-2)))
        CFI (cfiCond9) DPH0 load(1, XDATA, add(CFA_XSP16, literal(-1)))
        CFI (cfiCond9) CFA_SP SP+0
        CFI (cfiCond9) CFA_XSP16 add(XSP16, 11)
        CFI Block cfiPicker10 Using cfiCommon1
        CFI (cfiPicker10) NoFunction
        CFI (cfiPicker10) Picker
        MOV     DPL,R6
        MOV     DPH,R7
        MOVX    A,@DPTR
        MOV     R4,A
        INC     DPTR
        MOVX    A,@DPTR
        MOV     R5,A
        MOV     R2,#uartbuf & 0xff
        MOV     R3,#(uartbuf >> 8) & 0xff
        RET
        CFI EndBlock cfiCond8
        CFI EndBlock cfiCond9
        CFI EndBlock cfiPicker10

        RSEG BANKED_CODE:CODE:NOROOT(0)
?Subroutine3:
        CFI Block cfiCond11 Using cfiCommon0
        CFI NoFunction
        CFI Conditional ??CrossCallReturnLabel_0
        CFI R6 load(1, XDATA, add(CFA_XSP16, literal(-10)))
        CFI VB load(1, XDATA, add(CFA_XSP16, literal(-9)))
        CFI V0 load(1, XDATA, add(CFA_XSP16, literal(-8)))
        CFI V1 load(1, XDATA, add(CFA_XSP16, literal(-7)))
        CFI R7 load(1, XDATA, add(CFA_XSP16, literal(-6)))
        CFI ?RET_LOW load(1, XDATA, add(CFA_XSP16, literal(-5)))
        CFI ?RET_HIGH load(1, XDATA, add(CFA_XSP16, literal(-4)))
        CFI ?BRET_EXT load(1, XDATA, add(CFA_XSP16, literal(-3)))
        CFI DPL0 load(1, XDATA, add(CFA_XSP16, literal(-2)))
        CFI DPH0 load(1, XDATA, add(CFA_XSP16, literal(-1)))
        CFI CFA_SP SP+0
        CFI CFA_XSP16 add(XSP16, 10)
        CFI Block cfiCond12 Using cfiCommon0
        CFI (cfiCond12) NoFunction
        CFI (cfiCond12) Conditional ??CrossCallReturnLabel_1
        CFI (cfiCond12) R6 load(1, XDATA, add(CFA_XSP16, literal(-11)))
        CFI (cfiCond12) VB load(1, XDATA, add(CFA_XSP16, literal(-10)))
        CFI (cfiCond12) V0 load(1, XDATA, add(CFA_XSP16, literal(-9)))
        CFI (cfiCond12) V1 load(1, XDATA, add(CFA_XSP16, literal(-8)))
        CFI (cfiCond12) V2 load(1, XDATA, add(CFA_XSP16, literal(-7)))
        CFI (cfiCond12) R7 load(1, XDATA, add(CFA_XSP16, literal(-6)))
        CFI (cfiCond12) ?RET_LOW load(1, XDATA, add(CFA_XSP16, literal(-5)))
        CFI (cfiCond12) ?RET_HIGH load(1, XDATA, add(CFA_XSP16, literal(-4)))
        CFI (cfiCond12) ?BRET_EXT load(1, XDATA, add(CFA_XSP16, literal(-3)))
        CFI (cfiCond12) DPL0 load(1, XDATA, add(CFA_XSP16, literal(-2)))
        CFI (cfiCond12) DPH0 load(1, XDATA, add(CFA_XSP16, literal(-1)))
        CFI (cfiCond12) CFA_SP SP+0
        CFI (cfiCond12) CFA_XSP16 add(XSP16, 11)
        CFI Block cfiPicker13 Using cfiCommon1
        CFI (cfiPicker13) NoFunction
        CFI (cfiPicker13) Picker
        MOV     DPL,A
        MOV     A,R3
        ADDC    A,#0x0
        MOV     DPH,A
        MOVX    A,@DPTR
        MOV     ?V0 + 0,A
        INC     DPTR
        MOVX    A,@DPTR
        MOV     ?V0 + 1,A
        RET
        CFI EndBlock cfiCond11
        CFI EndBlock cfiCond12
        CFI EndBlock cfiPicker13
//  549 
//  550 /*********************************************************************
//  551  * @fn      SimonApp_SendTheMessage
//  552  *
//  553  * @brief   Send "the" message.
//  554  *
//  555  * @param   none
//  556  *
//  557  * @return  none
//  558  */

        RSEG BANKED_CODE:CODE:NOROOT(0)
//  559 void SimonApp_SendTheMessage( void )
SimonApp_SendTheMessage:
        CFI Block cfiBlock14 Using cfiCommon0
        CFI Function SimonApp_SendTheMessage
        CODE
//  560 {
        FUNCALL SimonApp_SendTheMessage, osal_strlen
        LOCFRAME ISTACK, 0, STACK
        LOCFRAME PSTACK, 0, STACK
        LOCFRAME XSTACK, 27, STACK
        LOCFRAME IOVERLAY, 0, STATIC
        LOCFRAME DOVERLAY, 0, STATIC
        ARGFRAME ISTACK, 0, STACK
        ARGFRAME PSTACK, 0, STACK
        ARGFRAME XSTACK, 27, STACK
        ARGFRAME IOVERLAY, 0, STATIC
        ARGFRAME DOVERLAY, 0, STATIC
        FUNCALL SimonApp_SendTheMessage, AF_DataRequest
        LOCFRAME ISTACK, 0, STACK
        LOCFRAME PSTACK, 0, STACK
        LOCFRAME XSTACK, 31, STACK
        LOCFRAME IOVERLAY, 0, STATIC
        LOCFRAME DOVERLAY, 0, STATIC
        ARGFRAME ISTACK, 0, STACK
        ARGFRAME PSTACK, 0, STACK
        ARGFRAME XSTACK, 31, STACK
        ARGFRAME IOVERLAY, 0, STATIC
        ARGFRAME DOVERLAY, 0, STATIC
        MOV     A,#-0xa
        LCALL   ?BANKED_ENTER_XDATA
        CFI DPH0 load(1, XDATA, add(CFA_XSP16, literal(-1)))
        CFI DPL0 load(1, XDATA, add(CFA_XSP16, literal(-2)))
        CFI ?BRET_EXT load(1, XDATA, add(CFA_XSP16, literal(-3)))
        CFI ?RET_HIGH load(1, XDATA, add(CFA_XSP16, literal(-4)))
        CFI ?RET_LOW load(1, XDATA, add(CFA_XSP16, literal(-5)))
        CFI R7 load(1, XDATA, add(CFA_XSP16, literal(-6)))
        CFI V1 load(1, XDATA, add(CFA_XSP16, literal(-7)))
        CFI V0 load(1, XDATA, add(CFA_XSP16, literal(-8)))
        CFI VB load(1, XDATA, add(CFA_XSP16, literal(-9)))
        CFI R6 load(1, XDATA, add(CFA_XSP16, literal(-10)))
        CFI CFA_SP SP+0
        CFI CFA_XSP16 add(XSP16, 10)
        ; Saved register size: 10
        ; Auto size: 12
        MOV     A,#-0xc
        LCALL   ?ALLOC_XSTACK8
        CFI CFA_XSP16 add(XSP16, 22)
//  561   char theMessageData[] = "Hello World";
        MOV     DPL,?XSP + 0
        MOV     DPH,?XSP + 1
        MOV     R4,DPL
        MOV     R5,DPH
        MOV     DPH,#(`?<Constant "Hello World">` >> 8) & 0xff
        MOV     DPL,#`?<Constant "Hello World">` & 0xff
        MOV     A,#0xc
        LCALL   ?MOVE_LONG8_XDATA_XDATA
//  562  
//  563 
//  564   if ( AF_DataRequest( &SimonApp_DstAddr, &SimonApp_epDesc,
//  565                        SimonApp_CLUSTERID,
//  566                        (byte)osal_strlen( theMessageData ) + 1,
//  567                        (byte *)&theMessageData,
//  568                        &SimonApp_TransID,
//  569                        AF_DISCV_ROUTE, AF_DEFAULT_RADIUS ) == afStatus_SUCCESS )
        ; Setup parameters for call to function AF_DataRequest
        MOV     ?V0 + 0,#0x1e
        MOV     R0,#?V0 + 0
        LCALL   ?PUSH_XSTACK_I_ONE
        CFI CFA_XSP16 add(XSP16, 23)
        MOV     ?V0 + 0,#SimonApp_TransID & 0xff
        MOV     ?V0 + 1,#(SimonApp_TransID >> 8) & 0xff
        MOV     R0,#?V0 + 0
        LCALL   ?PUSH_XSTACK_I_TWO
        CFI CFA_XSP16 add(XSP16, 25)
        MOV     A,#0x3
        LCALL   ?XSTACK_DISP0_8
        MOV     ?V0 + 0,DPL
        MOV     ?V0 + 1,DPH
        MOV     R0,#?V0 + 0
        LCALL   ?PUSH_XSTACK_I_TWO
        CFI CFA_XSP16 add(XSP16, 27)
        ; Setup parameters for call to function osal_strlen
        MOV     A,#0x5
        LCALL   ?XSTACK_DISP0_8
        MOV     R2,DPL
        MOV     R3,DPH
        LCALL   ??osal_strlen?relay
        MOV     A,R2
        ADD     A,#0x1
        MOV     ?V0 + 0,A
        CLR     A
        ADDC    A,#0x0
        MOV     ?V0 + 1,A
        MOV     R0,#?V0 + 0
        LCALL   ?PUSH_XSTACK_I_TWO
        CFI CFA_XSP16 add(XSP16, 29)
        MOV     ?V0 + 0,#0x1
        MOV     ?V0 + 1,#0x0
        MOV     R0,#?V0 + 0
        LCALL   ?PUSH_XSTACK_I_TWO
        CFI CFA_XSP16 add(XSP16, 31)
        MOV     R1,#0x20
        MOV     R4,#SimonApp_epDesc & 0xff
        MOV     R5,#(SimonApp_epDesc >> 8) & 0xff
        MOV     R2,#SimonApp_DstAddr & 0xff
        MOV     R3,#(SimonApp_DstAddr >> 8) & 0xff
        LCALL   ??AF_DataRequest?relay
        MOV     A,#0x9
        LCALL   ?DEALLOC_XSTACK8
        CFI CFA_XSP16 add(XSP16, 22)
//  570   {
//  571     // Successfully requested to be sent.
//  572     //HalUARTWrite(0,"OK\n",3);
//  573   }
//  574   else
//  575   {
//  576     // Error occurred in request to send.
//  577     //HalUARTWrite(0,"KO\n",3);
//  578   }
//  579 }
        MOV     A,#0xc
        LCALL   ?DEALLOC_XSTACK8
        CFI CFA_XSP16 add(XSP16, 10)
        LJMP    ?Subroutine2 & 0xFFFF
        CFI EndBlock cfiBlock14
//  580 

        RSEG BANKED_CODE:CODE:NOROOT(0)
//  581 void SimonApp_SendTheSerial( void )
SimonApp_SendTheSerial:
        CFI Block cfiBlock15 Using cfiCommon0
        CFI Function SimonApp_SendTheSerial
        CODE
//  582 {
        FUNCALL SimonApp_SendTheSerial, osal_strlen
        LOCFRAME ISTACK, 0, STACK
        LOCFRAME PSTACK, 0, STACK
        LOCFRAME XSTACK, 24, STACK
        LOCFRAME IOVERLAY, 0, STATIC
        LOCFRAME DOVERLAY, 0, STATIC
        ARGFRAME ISTACK, 0, STACK
        ARGFRAME PSTACK, 0, STACK
        ARGFRAME XSTACK, 24, STACK
        ARGFRAME IOVERLAY, 0, STATIC
        ARGFRAME DOVERLAY, 0, STATIC
        FUNCALL SimonApp_SendTheSerial, AF_DataRequest
        LOCFRAME ISTACK, 0, STACK
        LOCFRAME PSTACK, 0, STACK
        LOCFRAME XSTACK, 33, STACK
        LOCFRAME IOVERLAY, 0, STATIC
        LOCFRAME DOVERLAY, 0, STATIC
        ARGFRAME ISTACK, 0, STACK
        ARGFRAME PSTACK, 0, STACK
        ARGFRAME XSTACK, 33, STACK
        ARGFRAME IOVERLAY, 0, STATIC
        ARGFRAME DOVERLAY, 0, STATIC
        MOV     A,#-0xc
        LCALL   ?BANKED_ENTER_XDATA
        CFI DPH0 load(1, XDATA, add(CFA_XSP16, literal(-1)))
        CFI DPL0 load(1, XDATA, add(CFA_XSP16, literal(-2)))
        CFI ?BRET_EXT load(1, XDATA, add(CFA_XSP16, literal(-3)))
        CFI ?RET_HIGH load(1, XDATA, add(CFA_XSP16, literal(-4)))
        CFI ?RET_LOW load(1, XDATA, add(CFA_XSP16, literal(-5)))
        CFI R7 load(1, XDATA, add(CFA_XSP16, literal(-6)))
        CFI V3 load(1, XDATA, add(CFA_XSP16, literal(-7)))
        CFI V2 load(1, XDATA, add(CFA_XSP16, literal(-8)))
        CFI V1 load(1, XDATA, add(CFA_XSP16, literal(-9)))
        CFI V0 load(1, XDATA, add(CFA_XSP16, literal(-10)))
        CFI VB load(1, XDATA, add(CFA_XSP16, literal(-11)))
        CFI R6 load(1, XDATA, add(CFA_XSP16, literal(-12)))
        CFI CFA_SP SP+0
        CFI CFA_XSP16 add(XSP16, 12)
        ; Saved register size: 12
        ; Auto size: 12
        MOV     A,#-0xc
        LCALL   ?ALLOC_XSTACK8
        CFI CFA_XSP16 add(XSP16, 24)
//  583   //char theMessageData[] = "Hello World";
//  584   afAddrType_t my_DstAddr;
//  585   byte len = 0;
//  586   
//  587   if(uartbuf[UART_MAX-1] != '\0')
        MOV     DPTR,#uartbuf + 111
        MOVX    A,@DPTR
        JZ      ??SimonApp_SendTheSerial_0
//  588   {
//  589      len = UART_MAX; 
        MOV     ?V0 + 0,#0x70
        SJMP    ??SimonApp_SendTheSerial_1
//  590   }else{
//  591      len = osal_strlen( (char *)uartbuf ); 
??SimonApp_SendTheSerial_0:
        ; Setup parameters for call to function osal_strlen
        MOV     R2,#uartbuf & 0xff
        MOV     R3,#(uartbuf >> 8) & 0xff
        LCALL   ??osal_strlen?relay
        MOV     A,R2
        MOV     ?V0 + 0,A
//  592   }
//  593   
//  594   my_DstAddr.addrMode = (afAddrMode_t)Addr16Bit; 
??SimonApp_SendTheSerial_1:
        MOV     A,#0x8
        LCALL   ?XSTACK_DISP0_8
        MOV     A,#0x2
        MOVX    @DPTR,A
//  595   my_DstAddr.endPoint = SimonApp_ENDPOINT;
        MOV     A,#0x9
        LCALL   ?XSTACK_DISP0_8
        MOV     A,#0xa
        MOVX    @DPTR,A
//  596   my_DstAddr.addr.shortAddr = 0x0000;
        MOV     DPL,?XSP + 0
        MOV     DPH,?XSP + 1
        CLR     A
        MOVX    @DPTR,A
        INC     DPTR
        MOVX    @DPTR,A
//  597   
//  598 
//  599   if ( AF_DataRequest( &my_DstAddr, &SimonApp_epDesc,
//  600                        SimonApp_CLUSTERID,
//  601                        len,
//  602                        uartbuf,
//  603                        &SimonApp_TransID,
//  604                        AF_DISCV_ROUTE, AF_DEFAULT_RADIUS ) == afStatus_SUCCESS )
        ; Setup parameters for call to function AF_DataRequest
        MOV     ?V0 + 1,#0x1e
        MOV     R0,#?V0 + 1
        LCALL   ?PUSH_XSTACK_I_ONE
        CFI CFA_XSP16 add(XSP16, 25)
        MOV     ?V0 + 2,#SimonApp_TransID & 0xff
        MOV     ?V0 + 3,#(SimonApp_TransID >> 8) & 0xff
        MOV     R0,#?V0 + 2
        LCALL   ?PUSH_XSTACK_I_TWO
        CFI CFA_XSP16 add(XSP16, 27)
        MOV     ?V0 + 2,#uartbuf & 0xff
        MOV     ?V0 + 3,#(uartbuf >> 8) & 0xff
        MOV     R0,#?V0 + 2
        LCALL   ?PUSH_XSTACK_I_TWO
        CFI CFA_XSP16 add(XSP16, 29)
        MOV     ?V0 + 1,#0x0
        MOV     R0,#?V0 + 0
        LCALL   ?PUSH_XSTACK_I_TWO
        CFI CFA_XSP16 add(XSP16, 31)
        MOV     ?V0 + 0,#0x1
        MOV     R0,#?V0 + 0
        LCALL   ?PUSH_XSTACK_I_TWO
        CFI CFA_XSP16 add(XSP16, 33)
        MOV     R1,#0x20
        MOV     R4,#SimonApp_epDesc & 0xff
        MOV     R5,#(SimonApp_epDesc >> 8) & 0xff
        MOV     A,#0x9
        LCALL   ?XSTACK_DISP0_8
        MOV     R2,DPL
        MOV     R3,DPH
        LCALL   ??AF_DataRequest?relay
        MOV     A,#0x9
        LCALL   ?DEALLOC_XSTACK8
        CFI CFA_XSP16 add(XSP16, 24)
//  605   {
//  606     // Successfully requested to be sent.
//  607     //HalUARTWrite(0,"OK\n",3);
//  608   }
//  609   else
//  610   {
//  611     // Error occurred in request to send.
//  612     //HalUARTWrite(0,"KO\n",3);
//  613   }
//  614 }
        MOV     A,#0xc
        LCALL   ?DEALLOC_XSTACK8
        CFI CFA_XSP16 add(XSP16, 12)
        LJMP    ?Subroutine1 & 0xFFFF
        CFI EndBlock cfiBlock15
//  615 
//  616 /*********************************************************************
//  617 *********************************************************************/
//  618 
//  619 
//  620 /*added by Simon*/
//  621 

        RSEG BANKED_CODE:CODE:NOROOT(0)
//  622 static void rxCB(uint8 port,uint8 event)
rxCB:
        CFI Block cfiBlock16 Using cfiCommon0
        CFI Function rxCB
        CODE
//  623 {
        FUNCALL rxCB, osal_memset
        LOCFRAME ISTACK, 2, STACK
        LOCFRAME PSTACK, 0, STACK
        LOCFRAME XSTACK, 0, STACK
        LOCFRAME IOVERLAY, 0, STATIC
        LOCFRAME DOVERLAY, 0, STATIC
        ARGFRAME ISTACK, 2, STACK
        ARGFRAME PSTACK, 0, STACK
        ARGFRAME XSTACK, 0, STACK
        ARGFRAME IOVERLAY, 0, STATIC
        ARGFRAME DOVERLAY, 0, STATIC
        FUNCALL rxCB, HalUARTRead
        LOCFRAME ISTACK, 2, STACK
        LOCFRAME PSTACK, 0, STACK
        LOCFRAME XSTACK, 0, STACK
        LOCFRAME IOVERLAY, 0, STATIC
        LOCFRAME DOVERLAY, 0, STATIC
        ARGFRAME ISTACK, 2, STACK
        ARGFRAME PSTACK, 0, STACK
        ARGFRAME XSTACK, 0, STACK
        ARGFRAME IOVERLAY, 0, STATIC
        ARGFRAME DOVERLAY, 0, STATIC
        FUNCALL rxCB, osal_set_event
        LOCFRAME ISTACK, 2, STACK
        LOCFRAME PSTACK, 0, STACK
        LOCFRAME XSTACK, 0, STACK
        LOCFRAME IOVERLAY, 0, STATIC
        LOCFRAME DOVERLAY, 0, STATIC
        ARGFRAME ISTACK, 2, STACK
        ARGFRAME PSTACK, 0, STACK
        ARGFRAME XSTACK, 0, STACK
        ARGFRAME IOVERLAY, 0, STATIC
        ARGFRAME DOVERLAY, 0, STATIC
        PUSH    DPL
        CFI DPL0 Frame(CFA_SP, 4)
        CFI CFA_SP SP+-4
        PUSH    DPH
        CFI DPH0 Frame(CFA_SP, 5)
        CFI CFA_SP SP+-5
        ; Saved register size: 2
        ; Auto size: 0
//  624     osal_memset(uartbuf,0,UART_MAX);
        ; Setup parameters for call to function osal_memset
        MOV     R4,#0x70
        MOV     R5,#0x0
        MOV     R1,#0x0
        MOV     R2,#uartbuf & 0xff
        MOV     R3,#(uartbuf >> 8) & 0xff
        LCALL   ??osal_memset?relay
//  625     HalUARTRead(0,uartbuf,UART_MAX);
        ; Setup parameters for call to function HalUARTRead
        MOV     R4,#0x70
        MOV     R5,#0x0
        MOV     R2,#uartbuf & 0xff
        MOV     R3,#(uartbuf >> 8) & 0xff
        MOV     R1,#0x0
        LCALL   ??HalUARTRead?relay
//  626 //    if(osal_memcmp(uartbuf,"lzj",3))
//  627 //    {
//  628 //      HalUARTWrite(0,uartbuf,3);
//  629 //    }
//  630     if(DEV_FLAG == 3)
        MOV     DPTR,#DEV_FLAG
        MOVX    A,@DPTR
        XRL     A,#0x3
        JNZ     ??rxCB_0
//  631       osal_set_event(SimonApp_TaskID,Serial_CallBack_EVT);
        ; Setup parameters for call to function osal_set_event
        MOV     R2,#0x2
        MOV     R3,#0x0
        MOV     DPTR,#SimonApp_TaskID
        MOVX    A,@DPTR
        MOV     R1,A
        LCALL   ??osal_set_event?relay
//  632 }
??rxCB_0:
        POP     DPH
        CFI DPH0 SameValue
        CFI CFA_SP SP+-4
        POP     DPL
        CFI DPL0 SameValue
        CFI CFA_SP SP+-3
        LJMP    ?BRET
        CFI EndBlock cfiBlock16

        RSEG BANK_RELAYS:CODE:REORDER:NOROOT(0)
??SimonApp_Init?relay:
        LCALL   ?BDISPATCH
        DATA
        DC24    SimonApp_Init

        RSEG BANK_RELAYS:CODE:REORDER:NOROOT(0)
??SimonApp_ProcessEvent?relay:
        LCALL   ?BDISPATCH
        DATA
        DC24    SimonApp_ProcessEvent

        RSEG BANK_RELAYS:CODE:REORDER:NOROOT(0)
??SimonApp_ProcessZDOMsgs?relay:
        LCALL   ?BDISPATCH
        DATA
        DC24    SimonApp_ProcessZDOMsgs

        RSEG BANK_RELAYS:CODE:REORDER:NOROOT(0)
??SimonApp_HandleKeys?relay:
        LCALL   ?BDISPATCH
        DATA
        DC24    SimonApp_HandleKeys

        RSEG BANK_RELAYS:CODE:REORDER:NOROOT(0)
??SimonApp_MessageMSGCB?relay:
        LCALL   ?BDISPATCH
        DATA
        DC24    SimonApp_MessageMSGCB

        RSEG BANK_RELAYS:CODE:REORDER:NOROOT(0)
??SimonApp_SendTheMessage?relay:
        LCALL   ?BDISPATCH
        DATA
        DC24    SimonApp_SendTheMessage

        RSEG BANK_RELAYS:CODE:REORDER:NOROOT(0)
??SimonApp_SendTheSerial?relay:
        LCALL   ?BDISPATCH
        DATA
        DC24    SimonApp_SendTheSerial

        RSEG BANK_RELAYS:CODE:REORDER:NOROOT(0)
??rxCB?relay:
        LCALL   ?BDISPATCH
        DATA
        DC24    rxCB

        RSEG XDATA_ROM_C:CONST:REORDER:NOROOT(0)
        DATA8
`?<Constant "SimonApp">`:
        DB "SimonApp"

        RSEG XDATA_ROM_C:CONST:REORDER:NOROOT(0)
        DATA8
`?<Constant "Hello World">`:
        DB "Hello World"

        END
//  633 
//  634 /******************************************/
// 
// 966 bytes in segment BANKED_CODE
//  48 bytes in segment BANK_RELAYS
//  35 bytes in segment XDATA_ROM_C
// 134 bytes in segment XDATA_Z
// 
// 1 014 bytes of CODE  memory
//    35 bytes of CONST memory
//   134 bytes of XDATA memory
//
//Errors: none
//Warnings: 1
